ARM GAS  C:\Users\sandr\AppData\Local\Temp\cc9LviWB.s 			page 1


   1              		.cpu cortex-m4
   2              		.eabi_attribute 27, 1
   3              		.eabi_attribute 28, 1
   4              		.eabi_attribute 20, 1
   5              		.eabi_attribute 21, 1
   6              		.eabi_attribute 23, 3
   7              		.eabi_attribute 24, 1
   8              		.eabi_attribute 25, 1
   9              		.eabi_attribute 26, 1
  10              		.eabi_attribute 30, 2
  11              		.eabi_attribute 34, 1
  12              		.eabi_attribute 18, 4
  13              		.file	"distance.c"
  14              		.text
  15              	.Ltext0:
  16              		.cfi_sections	.debug_frame
  17              		.section	.text.distance_thd,"ax",%progbits
  18              		.align	1
  19              		.p2align 4,,15
  20              		.syntax unified
  21              		.thumb
  22              		.thumb_func
  23              		.fpu fpv4-sp-d16
  24              		.type	distance_thd, %function
  25              	distance_thd:
  26              	.LFB257:
  27              		.file 1 "distance.c"
  28              		.loc 1 58 0
  29              		.cfi_startproc
  30              		@ args = 0, pretend = 0, frame = 8
  31              		@ frame_needed = 0, uses_anonymous_args = 0
  32              	.LVL0:
  33 0000 2DE9F047 		push	{r4, r5, r6, r7, r8, r9, r10, lr}
  34              		.cfi_def_cfa_offset 32
  35              		.cfi_offset 4, -32
  36              		.cfi_offset 5, -28
  37              		.cfi_offset 6, -24
  38              		.cfi_offset 7, -20
  39              		.cfi_offset 8, -16
  40              		.cfi_offset 9, -12
  41              		.cfi_offset 10, -8
  42              		.cfi_offset 14, -4
  43              	.LBB50:
  44              	.LBB51:
  45              		.file 2 "../lib/e-puck2_main-processor/ChibiOS//os/rt/include/chregistry.h"
  46              		.loc 2 135 0
  47 0004 244D     		ldr	r5, .L7
  48              	.LBE51:
  49              	.LBE50:
  50              		.loc 1 58 0
  51 0006 254B     		ldr	r3, .L7+4
  52              	.LBB54:
  53              	.LBB52:
  54              		.loc 2 135 0
  55 0008 AA69     		ldr	r2, [r5, #24]
  56 000a 2549     		ldr	r1, .L7+8
  57              	.LBE52:
ARM GAS  C:\Users\sandr\AppData\Local\Temp\cc9LviWB.s 			page 2


  58              	.LBE54:
  59              		.loc 1 58 0
  60 000c 1B68     		ldr	r3, [r3]
  61 000e 254C     		ldr	r4, .L7+12
  62 0010 DFF89490 		ldr	r9, .L7+16
  63              	.LBB55:
  64              	.LBB56:
  65              	.LBB57:
  66              	.LBB58:
  67              		.file 3 "../lib/e-puck2_main-processor/ChibiOS//os/rt/include/chsys.h"
  68              		.loc 3 367 0
  69 0014 DFF894A0 		ldr	r10, .L7+20
  70              	.LBE58:
  71              	.LBE57:
  72              	.LBE56:
  73              	.LBE55:
  74              	.LBB83:
  75              	.LBB53:
  76              		.loc 2 135 0
  77 0018 9161     		str	r1, [r2, #24]
  78              	.LBE53:
  79              	.LBE83:
  80              		.loc 1 58 0
  81 001a 82B0     		sub	sp, sp, #8
  82              		.cfi_def_cfa_offset 40
  83              	.LBB84:
  84              	.LBB81:
  85              	.LBB67:
  86              	.LBB68:
  87              	.LBB69:
  88              	.LBB70:
  89              	.LBB71:
  90              		.file 4 "../lib/e-puck2_main-processor/ChibiOS//os/ext/CMSIS/include/core_cmFunc.h"
  91              		.loc 4 546 0
  92 001c 4FF02008 		mov	r8, #32
  93              	.LBE71:
  94              	.LBE70:
  95              	.LBE69:
  96              	.LBE68:
  97              	.LBE67:
  98              	.LBE81:
  99              	.LBE84:
 100              		.loc 1 58 0
 101 0020 0193     		str	r3, [sp, #4]
 102              	.LVL1:
 103              	.LBB85:
 104              	.LBB82:
 105              	.LBB76:
 106              	.LBB65:
 107              	.LBB59:
 108              	.LBB60:
 109              	.LBB61:
 110              		.loc 4 546 0
 111 0022 0027     		movs	r7, #0
 112              	.LVL2:
 113              	.L3:
 114              	.LBE61:
ARM GAS  C:\Users\sandr\AppData\Local\Temp\cc9LviWB.s 			page 3


 115              	.LBE60:
 116              	.LBE59:
 117              	.LBE65:
 118              	.LBE76:
 119              	.LBB77:
 120              	.LBB75:
 121              	.LBB74:
 122              	.LBB73:
 123              	.LBB72:
 124              		.loc 4 546 0 is_stmt 0 discriminator 1
 125              		.syntax unified
 126              	@ 546 "../lib/e-puck2_main-processor/ChibiOS//os/ext/CMSIS/include/core_cmFunc.h" 1
 127 0024 88F31188 		MSR basepri, r8
 128              	@ 0 "" 2
 129              	.LVL3:
 130              		.thumb
 131              		.syntax unified
 132              	.LBE72:
 133              	.LBE73:
 134              	.LBE74:
 135              		.loc 3 349 0 is_stmt 1 discriminator 1
 136 0028 FFF7FEFF 		bl	_stats_start_measure_crit_thd
 137              	.LVL4:
 138              		.loc 3 350 0 discriminator 1
 139 002c FFF7FEFF 		bl	_dbg_check_lock
 140              	.LVL5:
 141              	.LBE75:
 142              	.LBE77:
 143              	.LBB78:
 144              	.LBB79:
 145              		.file 5 "../lib/e-puck2_main-processor/ChibiOS//os/rt/include/chvt.h"
 146              		.loc 5 231 0 discriminator 1
 147 0030 AE6A     		ldr	r6, [r5, #40]
 148              	.LBE79:
 149              	.LBE78:
 150              	.LBB80:
 151              	.LBB66:
 152              		.loc 3 360 0 discriminator 1
 153 0032 FFF7FEFF 		bl	_dbg_check_unlock
 154              	.LVL6:
 155              		.loc 3 361 0 discriminator 1
 156 0036 FFF7FEFF 		bl	_stats_stop_measure_crit_thd
 157              	.LVL7:
 158              		.loc 3 367 0 discriminator 1
 159 003a 2B68     		ldr	r3, [r5]
 160 003c AB42     		cmp	r3, r5
 161 003e 07D0     		beq	.L2
 162              		.loc 3 367 0 is_stmt 0
 163 0040 AA69     		ldr	r2, [r5, #24]
 164 0042 9B68     		ldr	r3, [r3, #8]
 165 0044 9268     		ldr	r2, [r2, #8]
 166 0046 9A42     		cmp	r2, r3
 167 0048 02D2     		bcs	.L2
 168 004a 5046     		mov	r0, r10
 169 004c FFF7FEFF 		bl	chSysHalt
 170              	.LVL8:
 171              	.L2:
ARM GAS  C:\Users\sandr\AppData\Local\Temp\cc9LviWB.s 			page 4


 172              	.LBB64:
 173              	.LBB63:
 174              	.LBB62:
 175              		.loc 4 546 0 is_stmt 1
 176              		.syntax unified
 177              	@ 546 "../lib/e-puck2_main-processor/ChibiOS//os/ext/CMSIS/include/core_cmFunc.h" 1
 178 0050 87F31188 		MSR basepri, r7
 179              	@ 0 "" 2
 180              	.LVL9:
 181              		.thumb
 182              		.syntax unified
 183              	.LBE62:
 184              	.LBE63:
 185              	.LBE64:
 186              	.LBE66:
 187              	.LBE80:
 188              	.LBE82:
 189              	.LBE85:
 190              	.LBB86:
 191              	.LBB87:
 192              		.loc 1 77 0
 193 0054 0020     		movs	r0, #0
 194 0056 FFF7FEFF 		bl	get_calibrated_prox
 195              	.LVL10:
 196 005a 2080     		strh	r0, [r4]	@ movhi
 197              		.loc 1 78 0
 198 005c 0720     		movs	r0, #7
 199 005e FFF7FEFF 		bl	get_calibrated_prox
 200              	.LVL11:
 201 0062 6080     		strh	r0, [r4, #2]	@ movhi
 202              		.loc 1 79 0
 203 0064 0320     		movs	r0, #3
 204 0066 FFF7FEFF 		bl	get_calibrated_prox
 205              	.LVL12:
 206 006a A080     		strh	r0, [r4, #4]	@ movhi
 207              		.loc 1 80 0
 208 006c 0420     		movs	r0, #4
 209 006e FFF7FEFF 		bl	get_calibrated_prox
 210              	.LVL13:
 211 0072 E080     		strh	r0, [r4, #6]	@ movhi
 212              		.loc 1 81 0
 213 0074 0220     		movs	r0, #2
 214 0076 FFF7FEFF 		bl	get_calibrated_prox
 215              	.LVL14:
 216 007a 2081     		strh	r0, [r4, #8]	@ movhi
 217              		.loc 1 82 0
 218 007c 0520     		movs	r0, #5
 219 007e FFF7FEFF 		bl	get_calibrated_prox
 220              	.LVL15:
 221 0082 6081     		strh	r0, [r4, #10]	@ movhi
 222              		.loc 1 83 0
 223 0084 FFF7FEFF 		bl	get_mode_deplacement
 224              	.LVL16:
 225              	.LBE87:
 226              	.LBE86:
 227              		.loc 1 70 0
 228 0088 B11C     		adds	r1, r6, #2
ARM GAS  C:\Users\sandr\AppData\Local\Temp\cc9LviWB.s 			page 5


 229              	.LBB89:
 230              	.LBB88:
 231              		.loc 1 83 0
 232 008a 89F80000 		strb	r0, [r9]
 233              	.LBE88:
 234              	.LBE89:
 235              		.loc 1 70 0
 236 008e 3046     		mov	r0, r6
 237 0090 FFF7FEFF 		bl	chThdSleepUntilWindowed
 238              	.LVL17:
 239 0094 C6E7     		b	.L3
 240              	.L8:
 241 0096 00BF     		.align	2
 242              	.L7:
 243 0098 00000000 		.word	ch
 244 009c 00000000 		.word	__stack_chk_guard
 245 00a0 00000000 		.word	.LANCHOR0
 246 00a4 00000000 		.word	.LANCHOR2
 247 00a8 00000000 		.word	.LANCHOR3
 248 00ac 00000000 		.word	.LANCHOR1
 249              		.cfi_endproc
 250              	.LFE257:
 251              		.size	distance_thd, .-distance_thd
 252              		.section	.text.distance_start,"ax",%progbits
 253              		.align	1
 254              		.p2align 4,,15
 255              		.global	distance_start
 256              		.syntax unified
 257              		.thumb
 258              		.thumb_func
 259              		.fpu fpv4-sp-d16
 260              		.type	distance_start, %function
 261              	distance_start:
 262              	.LFB259:
 263              		.loc 1 90 0
 264              		.cfi_startproc
 265              		@ args = 0, pretend = 0, frame = 8
 266              		@ frame_needed = 0, uses_anonymous_args = 0
 267 0000 10B5     		push	{r4, lr}
 268              		.cfi_def_cfa_offset 8
 269              		.cfi_offset 4, -8
 270              		.cfi_offset 14, -4
 271 0002 0C4C     		ldr	r4, .L13
 272 0004 84B0     		sub	sp, sp, #16
 273              		.cfi_def_cfa_offset 24
 274              		.loc 1 90 0
 275 0006 2368     		ldr	r3, [r4]
 276 0008 0393     		str	r3, [sp, #12]
 277              		.loc 1 91 0
 278 000a FFF7FEFF 		bl	proximity_start
 279              	.LVL18:
 280              		.loc 1 92 0
 281 000e FFF7FEFF 		bl	calibrate_ir
 282              	.LVL19:
 283              		.loc 1 94 0
 284 0012 0023     		movs	r3, #0
 285 0014 0093     		str	r3, [sp]
ARM GAS  C:\Users\sandr\AppData\Local\Temp\cc9LviWB.s 			page 6


 286 0016 4222     		movs	r2, #66
 287 0018 074B     		ldr	r3, .L13+4
 288 001a 0848     		ldr	r0, .L13+8
 289 001c 4FF45E71 		mov	r1, #888
 290 0020 FFF7FEFF 		bl	chThdCreateStatic
 291              	.LVL20:
 292              		.loc 1 95 0
 293 0024 039A     		ldr	r2, [sp, #12]
 294 0026 2368     		ldr	r3, [r4]
 295 0028 9A42     		cmp	r2, r3
 296 002a 01D1     		bne	.L12
 297 002c 04B0     		add	sp, sp, #16
 298              		.cfi_remember_state
 299              		.cfi_def_cfa_offset 8
 300              		@ sp needed
 301 002e 10BD     		pop	{r4, pc}
 302              	.L12:
 303              		.cfi_restore_state
 304 0030 FFF7FEFF 		bl	__stack_chk_fail
 305              	.LVL21:
 306              	.L14:
 307              		.align	2
 308              	.L13:
 309 0034 00000000 		.word	__stack_chk_guard
 310 0038 00000000 		.word	distance_thd
 311 003c 00000000 		.word	.LANCHOR4
 312              		.cfi_endproc
 313              	.LFE259:
 314              		.size	distance_start, .-distance_start
 315              		.section	.text.is_there_obstacle,"ax",%progbits
 316              		.align	1
 317              		.p2align 4,,15
 318              		.global	is_there_obstacle
 319              		.syntax unified
 320              		.thumb
 321              		.thumb_func
 322              		.fpu fpv4-sp-d16
 323              		.type	is_there_obstacle, %function
 324              	is_there_obstacle:
 325              	.LFB260:
 326              		.loc 1 97 0
 327              		.cfi_startproc
 328              		@ args = 0, pretend = 0, frame = 8
 329              		@ frame_needed = 0, uses_anonymous_args = 0
 330 0000 F0B5     		push	{r4, r5, r6, r7, lr}
 331              		.cfi_def_cfa_offset 20
 332              		.cfi_offset 4, -20
 333              		.cfi_offset 5, -16
 334              		.cfi_offset 6, -12
 335              		.cfi_offset 7, -8
 336              		.cfi_offset 14, -4
 337 0002 454C     		ldr	r4, .L47
 338 0004 83B0     		sub	sp, sp, #12
 339              		.cfi_def_cfa_offset 32
 340              		.loc 1 97 0
 341 0006 2368     		ldr	r3, [r4]
 342 0008 0193     		str	r3, [sp, #4]
ARM GAS  C:\Users\sandr\AppData\Local\Temp\cc9LviWB.s 			page 7


 343              		.loc 1 98 0
 344 000a FFF7FEFF 		bl	get_cos_gravity
 345              	.LVL22:
 346              		.loc 1 100 0
 347 000e 434B     		ldr	r3, .L47+4
 348 0010 1988     		ldrh	r1, [r3]
 349 0012 5029     		cmp	r1, #80
 350 0014 02D8     		bhi	.L16
 351              		.loc 1 101 0 discriminator 1
 352 0016 1A89     		ldrh	r2, [r3, #8]
 353              		.loc 1 100 0 discriminator 1
 354 0018 502A     		cmp	r2, #80
 355 001a 61D9     		bls	.L43
 356              	.L16:
 357              		.loc 1 104 0
 358 001c 404A     		ldr	r2, .L47+8
 359 001e 1078     		ldrb	r0, [r2]	@ zero_extendqisi2
 360              		.loc 1 103 0
 361 0020 0128     		cmp	r0, #1
 362 0022 3BD0     		beq	.L18
 363              		.loc 1 108 0
 364 0024 9D88     		ldrh	r5, [r3, #4]
 365 0026 502D     		cmp	r5, #80
 366 0028 3ED9     		bls	.L44
 367              	.L19:
 368              		.loc 1 111 0
 369 002a 0228     		cmp	r0, #2
 370 002c 35D0     		beq	.L37
 371              	.L21:
 372              		.loc 1 116 0
 373 002e 5888     		ldrh	r0, [r3, #2]
 374 0030 5028     		cmp	r0, #80
 375 0032 48D9     		bls	.L45
 376              	.L22:
 377              		.loc 1 120 0
 378 0034 3A4A     		ldr	r2, .L47+8
 379 0036 1678     		ldrb	r6, [r2]	@ zero_extendqisi2
 380              		.loc 1 119 0
 381 0038 7EB3     		cbz	r6, .L37
 382              		.loc 1 124 0
 383 003a DF88     		ldrh	r7, [r3, #6]
 384 003c 502F     		cmp	r7, #80
 385 003e 07D8     		bhi	.L24
 386              		.loc 1 125 0 discriminator 1
 387 0040 5A89     		ldrh	r2, [r3, #10]
 388              		.loc 1 124 0 discriminator 1
 389 0042 502A     		cmp	r2, #80
 390 0044 04D8     		bhi	.L24
 391              	.L31:
 392              		.loc 1 126 0
 393 0046 3A44     		add	r2, r2, r7
 394              		.loc 1 125 0
 395 0048 502A     		cmp	r2, #80
 396 004a 5EDD     		ble	.L25
 397              	.L42:
 398 004c 344A     		ldr	r2, .L47+8
 399 004e 1678     		ldrb	r6, [r2]	@ zero_extendqisi2
ARM GAS  C:\Users\sandr\AppData\Local\Temp\cc9LviWB.s 			page 8


 400              	.L24:
 401              		.loc 1 127 0
 402 0050 032E     		cmp	r6, #3
 403 0052 22D0     		beq	.L37
 404              	.L26:
 405              		.loc 1 132 0
 406 0054 5029     		cmp	r1, #80
 407 0056 19D8     		bhi	.L27
 408              		.loc 1 133 0 discriminator 1
 409 0058 1A89     		ldrh	r2, [r3, #8]
 410              		.loc 1 132 0 discriminator 1
 411 005a 502A     		cmp	r2, #80
 412 005c 16D8     		bhi	.L27
 413              		.loc 1 133 0
 414 005e 502D     		cmp	r5, #80
 415 0060 14D8     		bhi	.L27
 416              		.loc 1 135 0
 417 0062 1544     		add	r5, r5, r2
 418              		.loc 1 134 0
 419 0064 502D     		cmp	r5, #80
 420 0066 11DC     		bgt	.L27
 421              		.loc 1 136 0
 422 0068 0A44     		add	r2, r2, r1
 423              		.loc 1 135 0
 424 006a 502A     		cmp	r2, #80
 425 006c 0EDC     		bgt	.L27
 426              	.L28:
 427              		.loc 1 139 0
 428 006e 5028     		cmp	r0, #80
 429 0070 41D8     		bhi	.L29
 430              		.loc 1 140 0 discriminator 1
 431 0072 5B89     		ldrh	r3, [r3, #10]
 432              		.loc 1 139 0 discriminator 1
 433 0074 502B     		cmp	r3, #80
 434 0076 3ED8     		bhi	.L29
 435              		.loc 1 140 0
 436 0078 502F     		cmp	r7, #80
 437 007a 3CD8     		bhi	.L29
 438              		.loc 1 142 0
 439 007c 1F44     		add	r7, r7, r3
 440              		.loc 1 141 0
 441 007e 502F     		cmp	r7, #80
 442 0080 39DC     		bgt	.L29
 443              		.loc 1 143 0
 444 0082 0344     		add	r3, r3, r0
 445              		.loc 1 142 0
 446 0084 502B     		cmp	r3, #80
 447 0086 36DC     		bgt	.L29
 448              		.loc 1 149 0
 449 0088 0020     		movs	r0, #0
 450 008a 07E0     		b	.L18
 451              	.L27:
 452              		.loc 1 136 0
 453 008c F5EE007A 		vmov.f32	s15, #2.5e-1
 454 0090 B4EEE70A 		vcmpe.f32	s0, s15
 455 0094 F1EE10FA 		vmrs	APSR_nzcv, FPSCR
 456 0098 E9D5     		bpl	.L28
ARM GAS  C:\Users\sandr\AppData\Local\Temp\cc9LviWB.s 			page 9


 457              	.L37:
 458              		.loc 1 106 0
 459 009a 0120     		movs	r0, #1
 460              	.L18:
 461              		.loc 1 150 0
 462 009c 019A     		ldr	r2, [sp, #4]
 463 009e 2368     		ldr	r3, [r4]
 464 00a0 9A42     		cmp	r2, r3
 465 00a2 36D1     		bne	.L46
 466 00a4 03B0     		add	sp, sp, #12
 467              		.cfi_remember_state
 468              		.cfi_def_cfa_offset 20
 469              		@ sp needed
 470 00a6 F0BD     		pop	{r4, r5, r6, r7, pc}
 471              	.L44:
 472              		.cfi_restore_state
 473              		.loc 1 109 0 discriminator 1
 474 00a8 1A89     		ldrh	r2, [r3, #8]
 475              		.loc 1 108 0 discriminator 1
 476 00aa 502A     		cmp	r2, #80
 477 00ac BDD8     		bhi	.L19
 478              	.L30:
 479              		.loc 1 110 0
 480 00ae 2A44     		add	r2, r2, r5
 481              		.loc 1 109 0
 482 00b0 502A     		cmp	r2, #80
 483 00b2 03DC     		bgt	.L41
 484              		.loc 1 111 0
 485 00b4 DA88     		ldrh	r2, [r3, #6]
 486 00b6 2A44     		add	r2, r2, r5
 487              		.loc 1 110 0
 488 00b8 502A     		cmp	r2, #80
 489 00ba B8DD     		ble	.L21
 490              	.L41:
 491 00bc 184A     		ldr	r2, .L47+8
 492 00be 1078     		ldrb	r0, [r2]	@ zero_extendqisi2
 493              		.loc 1 111 0
 494 00c0 0228     		cmp	r0, #2
 495 00c2 B4D1     		bne	.L21
 496 00c4 E9E7     		b	.L37
 497              	.L45:
 498              		.loc 1 117 0 discriminator 1
 499 00c6 5A89     		ldrh	r2, [r3, #10]
 500              		.loc 1 116 0 discriminator 1
 501 00c8 502A     		cmp	r2, #80
 502 00ca B3D8     		bhi	.L22
 503              		.loc 1 118 0
 504 00cc 8618     		adds	r6, r0, r2
 505              		.loc 1 117 0
 506 00ce 502E     		cmp	r6, #80
 507 00d0 B0DC     		bgt	.L22
 508              		.loc 1 119 0
 509 00d2 0E18     		adds	r6, r1, r0
 510              		.loc 1 118 0
 511 00d4 502E     		cmp	r6, #80
 512 00d6 ADDC     		bgt	.L22
 513              		.loc 1 124 0
ARM GAS  C:\Users\sandr\AppData\Local\Temp\cc9LviWB.s 			page 10


 514 00d8 DF88     		ldrh	r7, [r3, #6]
 515 00da 502F     		cmp	r7, #80
 516 00dc B6D8     		bhi	.L42
 517 00de B2E7     		b	.L31
 518              	.L43:
 519              		.loc 1 102 0
 520 00e0 8818     		adds	r0, r1, r2
 521              		.loc 1 101 0
 522 00e2 5028     		cmp	r0, #80
 523 00e4 9ADC     		bgt	.L16
 524              		.loc 1 103 0
 525 00e6 5888     		ldrh	r0, [r3, #2]
 526 00e8 0844     		add	r0, r0, r1
 527              		.loc 1 102 0
 528 00ea 5028     		cmp	r0, #80
 529 00ec 96DC     		bgt	.L16
 530              		.loc 1 108 0
 531 00ee 9D88     		ldrh	r5, [r3, #4]
 532 00f0 502D     		cmp	r5, #80
 533 00f2 E3D8     		bhi	.L41
 534 00f4 DBE7     		b	.L30
 535              	.L29:
 536              		.loc 1 143 0
 537 00f6 FDEE007A 		vmov.f32	s15, #-2.5e-1
 538 00fa B4EEE70A 		vcmpe.f32	s0, s15
 539 00fe F1EE10FA 		vmrs	APSR_nzcv, FPSCR
 540 0102 CCBF     		ite	gt
 541 0104 0120     		movgt	r0, #1
 542 0106 0020     		movle	r0, #0
 543 0108 C8E7     		b	.L18
 544              	.L25:
 545              		.loc 1 127 0
 546 010a EA19     		adds	r2, r5, r7
 547              		.loc 1 126 0
 548 010c 502A     		cmp	r2, #80
 549 010e A1DD     		ble	.L26
 550 0110 9CE7     		b	.L42
 551              	.L46:
 552              		.loc 1 150 0
 553 0112 FFF7FEFF 		bl	__stack_chk_fail
 554              	.LVL23:
 555              	.L48:
 556 0116 00BF     		.align	2
 557              	.L47:
 558 0118 00000000 		.word	__stack_chk_guard
 559 011c 00000000 		.word	.LANCHOR2
 560 0120 00000000 		.word	.LANCHOR3
 561              		.cfi_endproc
 562              	.LFE260:
 563              		.size	is_there_obstacle, .-is_there_obstacle
 564              		.section	.text.index_highest_sensor_value,"ax",%progbits
 565              		.align	1
 566              		.p2align 4,,15
 567              		.global	index_highest_sensor_value
 568              		.syntax unified
 569              		.thumb
 570              		.thumb_func
ARM GAS  C:\Users\sandr\AppData\Local\Temp\cc9LviWB.s 			page 11


 571              		.fpu fpv4-sp-d16
 572              		.type	index_highest_sensor_value, %function
 573              	index_highest_sensor_value:
 574              	.LFB261:
 575              		.loc 1 152 0
 576              		.cfi_startproc
 577              		@ args = 0, pretend = 0, frame = 8
 578              		@ frame_needed = 0, uses_anonymous_args = 0
 579 0000 70B5     		push	{r4, r5, r6, lr}
 580              		.cfi_def_cfa_offset 16
 581              		.cfi_offset 4, -16
 582              		.cfi_offset 5, -12
 583              		.cfi_offset 6, -8
 584              		.cfi_offset 14, -4
 585 0002 0D4E     		ldr	r6, .L56
 586 0004 0D49     		ldr	r1, .L56+4
 587 0006 3368     		ldr	r3, [r6]
 588 0008 82B0     		sub	sp, sp, #8
 589              		.cfi_def_cfa_offset 24
 590              		.loc 1 152 0
 591 000a 0193     		str	r3, [sp, #4]
 592              	.LVL24:
 593 000c 0023     		movs	r3, #0
 594              		.loc 1 154 0
 595 000e 1846     		mov	r0, r3
 596              		.loc 1 153 0
 597 0010 1C46     		mov	r4, r3
 598              	.LVL25:
 599              	.L51:
 600              	.LBB90:
 601              		.loc 1 156 0
 602 0012 31F8022B 		ldrh	r2, [r1], #2
 603 0016 DDB2     		uxtb	r5, r3
 604              	.LVL26:
 605 0018 A242     		cmp	r2, r4
 606 001a 03F10103 		add	r3, r3, #1
 607 001e 84BF     		itt	hi
 608 0020 2846     		movhi	r0, r5
 609 0022 1446     		movhi	r4, r2
 610              	.LVL27:
 611              		.loc 1 155 0
 612 0024 062B     		cmp	r3, #6
 613 0026 F4D1     		bne	.L51
 614              	.LBE90:
 615              		.loc 1 162 0
 616 0028 019A     		ldr	r2, [sp, #4]
 617 002a 3368     		ldr	r3, [r6]
 618 002c 9A42     		cmp	r2, r3
 619 002e 01D1     		bne	.L55
 620 0030 02B0     		add	sp, sp, #8
 621              		.cfi_remember_state
 622              		.cfi_def_cfa_offset 16
 623              		@ sp needed
 624 0032 70BD     		pop	{r4, r5, r6, pc}
 625              	.LVL28:
 626              	.L55:
 627              		.cfi_restore_state
ARM GAS  C:\Users\sandr\AppData\Local\Temp\cc9LviWB.s 			page 12


 628 0034 FFF7FEFF 		bl	__stack_chk_fail
 629              	.LVL29:
 630              	.L57:
 631              		.align	2
 632              	.L56:
 633 0038 00000000 		.word	__stack_chk_guard
 634 003c 00000000 		.word	.LANCHOR2
 635              		.cfi_endproc
 636              	.LFE261:
 637              		.size	index_highest_sensor_value, .-index_highest_sensor_value
 638              		.section	.text.get_error_distance_to_wall_right,"ax",%progbits
 639              		.align	1
 640              		.p2align 4,,15
 641              		.global	get_error_distance_to_wall_right
 642              		.syntax unified
 643              		.thumb
 644              		.thumb_func
 645              		.fpu fpv4-sp-d16
 646              		.type	get_error_distance_to_wall_right, %function
 647              	get_error_distance_to_wall_right:
 648              	.LFB262:
 649              		.loc 1 164 0
 650              		.cfi_startproc
 651              		@ args = 0, pretend = 0, frame = 8
 652              		@ frame_needed = 0, uses_anonymous_args = 0
 653 0000 00B5     		push	{lr}
 654              		.cfi_def_cfa_offset 4
 655              		.cfi_offset 14, -4
 656 0002 094B     		ldr	r3, .L62
 657              		.loc 1 165 0
 658 0004 094A     		ldr	r2, .L62+4
 659              		.loc 1 164 0
 660 0006 1968     		ldr	r1, [r3]
 661              		.loc 1 165 0
 662 0008 1089     		ldrh	r0, [r2, #8]
 663              		.loc 1 164 0
 664 000a 83B0     		sub	sp, sp, #12
 665              		.cfi_def_cfa_offset 16
 666              		.loc 1 164 0
 667 000c 0191     		str	r1, [sp, #4]
 668              		.loc 1 166 0
 669 000e 019A     		ldr	r2, [sp, #4]
 670 0010 1B68     		ldr	r3, [r3]
 671 0012 9A42     		cmp	r2, r3
 672 0014 05D1     		bne	.L61
 673 0016 C0F17800 		rsb	r0, r0, #120
 674 001a 00B2     		sxth	r0, r0
 675 001c 03B0     		add	sp, sp, #12
 676              		.cfi_remember_state
 677              		.cfi_def_cfa_offset 4
 678              		@ sp needed
 679 001e 5DF804FB 		ldr	pc, [sp], #4
 680              	.L61:
 681              		.cfi_restore_state
 682 0022 FFF7FEFF 		bl	__stack_chk_fail
 683              	.LVL30:
 684              	.L63:
ARM GAS  C:\Users\sandr\AppData\Local\Temp\cc9LviWB.s 			page 13


 685 0026 00BF     		.align	2
 686              	.L62:
 687 0028 00000000 		.word	__stack_chk_guard
 688 002c 00000000 		.word	.LANCHOR2
 689              		.cfi_endproc
 690              	.LFE262:
 691              		.size	get_error_distance_to_wall_right, .-get_error_distance_to_wall_right
 692              		.section	.text.get_error_distance_to_wall_left,"ax",%progbits
 693              		.align	1
 694              		.p2align 4,,15
 695              		.global	get_error_distance_to_wall_left
 696              		.syntax unified
 697              		.thumb
 698              		.thumb_func
 699              		.fpu fpv4-sp-d16
 700              		.type	get_error_distance_to_wall_left, %function
 701              	get_error_distance_to_wall_left:
 702              	.LFB263:
 703              		.loc 1 168 0
 704              		.cfi_startproc
 705              		@ args = 0, pretend = 0, frame = 8
 706              		@ frame_needed = 0, uses_anonymous_args = 0
 707 0000 00B5     		push	{lr}
 708              		.cfi_def_cfa_offset 4
 709              		.cfi_offset 14, -4
 710 0002 094B     		ldr	r3, .L68
 711              		.loc 1 169 0
 712 0004 094A     		ldr	r2, .L68+4
 713              		.loc 1 168 0
 714 0006 1968     		ldr	r1, [r3]
 715              		.loc 1 169 0
 716 0008 5089     		ldrh	r0, [r2, #10]
 717              		.loc 1 168 0
 718 000a 83B0     		sub	sp, sp, #12
 719              		.cfi_def_cfa_offset 16
 720              		.loc 1 168 0
 721 000c 0191     		str	r1, [sp, #4]
 722              		.loc 1 170 0
 723 000e 019A     		ldr	r2, [sp, #4]
 724 0010 1B68     		ldr	r3, [r3]
 725 0012 9A42     		cmp	r2, r3
 726 0014 05D1     		bne	.L67
 727 0016 C0F17800 		rsb	r0, r0, #120
 728 001a 00B2     		sxth	r0, r0
 729 001c 03B0     		add	sp, sp, #12
 730              		.cfi_remember_state
 731              		.cfi_def_cfa_offset 4
 732              		@ sp needed
 733 001e 5DF804FB 		ldr	pc, [sp], #4
 734              	.L67:
 735              		.cfi_restore_state
 736 0022 FFF7FEFF 		bl	__stack_chk_fail
 737              	.LVL31:
 738              	.L69:
 739 0026 00BF     		.align	2
 740              	.L68:
 741 0028 00000000 		.word	__stack_chk_guard
ARM GAS  C:\Users\sandr\AppData\Local\Temp\cc9LviWB.s 			page 14


 742 002c 00000000 		.word	.LANCHOR2
 743              		.cfi_endproc
 744              	.LFE263:
 745              		.size	get_error_distance_to_wall_left, .-get_error_distance_to_wall_left
 746              		.section	.text.get_error_orientation_right,"ax",%progbits
 747              		.align	1
 748              		.p2align 4,,15
 749              		.global	get_error_orientation_right
 750              		.syntax unified
 751              		.thumb
 752              		.thumb_func
 753              		.fpu fpv4-sp-d16
 754              		.type	get_error_orientation_right, %function
 755              	get_error_orientation_right:
 756              	.LFB264:
 757              		.loc 1 172 0
 758              		.cfi_startproc
 759              		@ args = 0, pretend = 0, frame = 8
 760              		@ frame_needed = 0, uses_anonymous_args = 0
 761 0000 00B5     		push	{lr}
 762              		.cfi_def_cfa_offset 4
 763              		.cfi_offset 14, -4
 764 0002 094B     		ldr	r3, .L74
 765              		.loc 1 173 0
 766 0004 094A     		ldr	r2, .L74+4
 767              		.loc 1 172 0
 768 0006 1968     		ldr	r1, [r3]
 769              		.loc 1 173 0
 770 0008 1088     		ldrh	r0, [r2]
 771              		.loc 1 172 0
 772 000a 83B0     		sub	sp, sp, #12
 773              		.cfi_def_cfa_offset 16
 774              		.loc 1 172 0
 775 000c 0191     		str	r1, [sp, #4]
 776              		.loc 1 173 0
 777 000e 9188     		ldrh	r1, [r2, #4]
 778              		.loc 1 174 0
 779 0010 019A     		ldr	r2, [sp, #4]
 780 0012 1B68     		ldr	r3, [r3]
 781 0014 9A42     		cmp	r2, r3
 782              		.loc 1 173 0
 783 0016 A0EB0100 		sub	r0, r0, r1
 784              		.loc 1 174 0
 785 001a 03D1     		bne	.L73
 786 001c 00B2     		sxth	r0, r0
 787 001e 03B0     		add	sp, sp, #12
 788              		.cfi_remember_state
 789              		.cfi_def_cfa_offset 4
 790              		@ sp needed
 791 0020 5DF804FB 		ldr	pc, [sp], #4
 792              	.L73:
 793              		.cfi_restore_state
 794 0024 FFF7FEFF 		bl	__stack_chk_fail
 795              	.LVL32:
 796              	.L75:
 797              		.align	2
 798              	.L74:
ARM GAS  C:\Users\sandr\AppData\Local\Temp\cc9LviWB.s 			page 15


 799 0028 00000000 		.word	__stack_chk_guard
 800 002c 00000000 		.word	.LANCHOR2
 801              		.cfi_endproc
 802              	.LFE264:
 803              		.size	get_error_orientation_right, .-get_error_orientation_right
 804              		.section	.text.get_error_orientation_left,"ax",%progbits
 805              		.align	1
 806              		.p2align 4,,15
 807              		.global	get_error_orientation_left
 808              		.syntax unified
 809              		.thumb
 810              		.thumb_func
 811              		.fpu fpv4-sp-d16
 812              		.type	get_error_orientation_left, %function
 813              	get_error_orientation_left:
 814              	.LFB265:
 815              		.loc 1 176 0
 816              		.cfi_startproc
 817              		@ args = 0, pretend = 0, frame = 8
 818              		@ frame_needed = 0, uses_anonymous_args = 0
 819 0000 00B5     		push	{lr}
 820              		.cfi_def_cfa_offset 4
 821              		.cfi_offset 14, -4
 822 0002 094B     		ldr	r3, .L80
 823              		.loc 1 177 0
 824 0004 094A     		ldr	r2, .L80+4
 825              		.loc 1 176 0
 826 0006 1968     		ldr	r1, [r3]
 827              		.loc 1 177 0
 828 0008 5088     		ldrh	r0, [r2, #2]
 829              		.loc 1 176 0
 830 000a 83B0     		sub	sp, sp, #12
 831              		.cfi_def_cfa_offset 16
 832              		.loc 1 176 0
 833 000c 0191     		str	r1, [sp, #4]
 834              		.loc 1 177 0
 835 000e D188     		ldrh	r1, [r2, #6]
 836              		.loc 1 178 0
 837 0010 019A     		ldr	r2, [sp, #4]
 838 0012 1B68     		ldr	r3, [r3]
 839 0014 9A42     		cmp	r2, r3
 840              		.loc 1 177 0
 841 0016 A0EB0100 		sub	r0, r0, r1
 842              		.loc 1 178 0
 843 001a 03D1     		bne	.L79
 844 001c 00B2     		sxth	r0, r0
 845 001e 03B0     		add	sp, sp, #12
 846              		.cfi_remember_state
 847              		.cfi_def_cfa_offset 4
 848              		@ sp needed
 849 0020 5DF804FB 		ldr	pc, [sp], #4
 850              	.L79:
 851              		.cfi_restore_state
 852 0024 FFF7FEFF 		bl	__stack_chk_fail
 853              	.LVL33:
 854              	.L81:
 855              		.align	2
ARM GAS  C:\Users\sandr\AppData\Local\Temp\cc9LviWB.s 			page 16


 856              	.L80:
 857 0028 00000000 		.word	__stack_chk_guard
 858 002c 00000000 		.word	.LANCHOR2
 859              		.cfi_endproc
 860              	.LFE265:
 861              		.size	get_error_orientation_left, .-get_error_orientation_left
 862              		.section	.bss.distance_thd_wa,"aw",%nobits
 863              		.align	3
 864              		.set	.LANCHOR4,. + 0
 865              		.type	distance_thd_wa, %object
 866              		.size	distance_thd_wa, 888
 867              	distance_thd_wa:
 868 0000 00000000 		.space	888
 868      00000000 
 868      00000000 
 868      00000000 
 868      00000000 
 869              		.section	.bss.mode_deplacement,"aw",%nobits
 870              		.set	.LANCHOR3,. + 0
 871              		.type	mode_deplacement, %object
 872              		.size	mode_deplacement, 1
 873              	mode_deplacement:
 874 0000 00       		.space	1
 875              		.section	.bss.sensor_value,"aw",%nobits
 876              		.align	2
 877              		.set	.LANCHOR2,. + 0
 878              		.type	sensor_value, %object
 879              		.size	sensor_value, 12
 880              	sensor_value:
 881 0000 00000000 		.space	12
 881      00000000 
 881      00000000 
 882              		.section	.rodata.__FUNCTION__.11094,"a",%progbits
 883              		.align	2
 884              		.set	.LANCHOR0,. + 0
 885              		.type	__FUNCTION__.11094, %object
 886              		.size	__FUNCTION__.11094, 13
 887              	__FUNCTION__.11094:
 888 0000 64697374 		.ascii	"distance_thd\000"
 888      616E6365 
 888      5F746864 
 888      00
 889              		.section	.rodata.__func__.7195,"a",%progbits
 890              		.align	2
 891              		.set	.LANCHOR1,. + 0
 892              		.type	__func__.7195, %object
 893              		.size	__func__.7195, 12
 894              	__func__.7195:
 895 0000 63685379 		.ascii	"chSysUnlock\000"
 895      73556E6C 
 895      6F636B00 
 896              		.text
 897              	.Letext0:
 898              		.file 6 "c:\\users\\sandr\\desktop\\eclipse_e-puck2\\tools\\gcc-arm-none-eabi-7-2017-q4-major-win3
 899              		.file 7 "c:\\users\\sandr\\desktop\\eclipse_e-puck2\\tools\\gcc-arm-none-eabi-7-2017-q4-major-win3
 900              		.file 8 "c:\\users\\sandr\\desktop\\eclipse_e-puck2\\tools\\gcc-arm-none-eabi-7-2017-q4-major-win3
 901              		.file 9 "../lib/e-puck2_main-processor/ChibiOS//os/rt/ports/ARMCMx/compilers/GCC/chtypes.h"
ARM GAS  C:\Users\sandr\AppData\Local\Temp\cc9LviWB.s 			page 17


 902              		.file 10 "../lib/e-puck2_main-processor/ChibiOS//os/rt/include/chsystypes.h"
 903              		.file 11 "../lib/e-puck2_main-processor/ChibiOS//os/rt/include/chschd.h"
 904              		.file 12 "../lib/e-puck2_main-processor/ChibiOS//os/ext/CMSIS/include/core_cm4.h"
 905              		.file 13 "../lib/e-puck2_main-processor/ChibiOS//os/ext/CMSIS/ST/system_stm32f4xx.h"
 906              		.file 14 "../lib/e-puck2_main-processor/ChibiOS//os/ext/CMSIS/ST/stm32f407xx.h"
 907              		.file 15 "../lib/e-puck2_main-processor/ChibiOS//os/rt/ports/ARMCMx/chcore.h"
 908              		.file 16 "../lib/e-puck2_main-processor/ChibiOS//os/rt/ports/ARMCMx/chcore_v7m.h"
 909              		.file 17 "../lib/e-puck2_main-processor/ChibiOS//os/rt/include/chdebug.h"
 910              		.file 18 "../lib/e-puck2_main-processor/ChibiOS//os/rt/include/chtm.h"
 911              		.file 19 "../lib/e-puck2_main-processor/ChibiOS//os/rt/include/chstats.h"
 912              		.file 20 "../lib/e-puck2_main-processor/ChibiOS//os/rt/include/chsem.h"
 913              		.file 21 "../lib/e-puck2_main-processor/ChibiOS//os/rt/include/chmtx.h"
 914              		.file 22 "../lib/e-puck2_main-processor/ChibiOS//os/rt/include/chevents.h"
 915              		.file 23 "../lib/e-puck2_main-processor/ChibiOS//os/rt/include/chqueues.h"
 916              		.file 24 "../lib/e-puck2_main-processor/ChibiOS//os/hal/ports/STM32/STM32F4xx/stm32_dma.h"
 917              		.file 25 "../lib/e-puck2_main-processor/ChibiOS//os/hal/include/hal_ioblock.h"
 918              		.file 26 "../lib/e-puck2_main-processor/ChibiOS//os/hal/ports/STM32/LLD/GPIOv2/pal_lld.h"
 919              		.file 27 "../lib/e-puck2_main-processor/ChibiOS//os/hal/include/adc.h"
 920              		.file 28 "../lib/e-puck2_main-processor/ChibiOS//os/hal/ports/STM32/STM32F4xx/adc_lld.h"
 921              		.file 29 "../lib/e-puck2_main-processor/ChibiOS//os/hal/include/can.h"
 922              		.file 30 "../lib/e-puck2_main-processor/ChibiOS//os/hal/ports/STM32/LLD/can_lld.h"
 923              		.file 31 "../lib/e-puck2_main-processor/ChibiOS//os/hal/include/dac.h"
 924              		.file 32 "../lib/e-puck2_main-processor/ChibiOS//os/hal/ports/STM32/LLD/DACv1/dac_lld.h"
 925              		.file 33 "../lib/e-puck2_main-processor/ChibiOS//os/hal/include/ext.h"
 926              		.file 34 "../lib/e-puck2_main-processor/ChibiOS//os/hal/ports/STM32/LLD/ext_lld.h"
 927              		.file 35 "../lib/e-puck2_main-processor/ChibiOS//os/hal/include/gpt.h"
 928              		.file 36 "../lib/e-puck2_main-processor/ChibiOS//os/hal/ports/STM32/LLD/TIMv1/gpt_lld.h"
 929              		.file 37 "../lib/e-puck2_main-processor/ChibiOS//os/hal/ports/STM32/LLD/TIMv1/stm32_tim.h"
 930              		.file 38 "../lib/e-puck2_main-processor/ChibiOS//os/hal/include/i2c.h"
 931              		.file 39 "../lib/e-puck2_main-processor/ChibiOS//os/hal/ports/STM32/LLD/I2Cv1/i2c_lld.h"
 932              		.file 40 "../lib/e-puck2_main-processor/ChibiOS//os/hal/include/i2s.h"
 933              		.file 41 "../lib/e-puck2_main-processor/ChibiOS//os/hal/ports/STM32/LLD/SPIv1/i2s_lld.h"
 934              		.file 42 "../lib/e-puck2_main-processor/ChibiOS//os/hal/include/pwm.h"
 935              		.file 43 "../lib/e-puck2_main-processor/ChibiOS//os/hal/ports/STM32/LLD/TIMv1/pwm_lld.h"
 936              		.file 44 "../lib/e-puck2_main-processor/ChibiOS//os/hal/include/serial.h"
 937              		.file 45 "../lib/e-puck2_main-processor/ChibiOS//os/hal/ports/STM32/LLD/USARTv1/serial_lld.h"
 938              		.file 46 "../lib/e-puck2_main-processor/ChibiOS//os/hal/include/sdc.h"
 939              		.file 47 "../lib/e-puck2_main-processor/ChibiOS//os/hal/ports/STM32/LLD/sdc_lld.h"
 940              		.file 48 "../lib/e-puck2_main-processor/ChibiOS//os/hal/include/spi.h"
 941              		.file 49 "../lib/e-puck2_main-processor/ChibiOS//os/hal/ports/STM32/LLD/SPIv1/spi_lld.h"
 942              		.file 50 "../lib/e-puck2_main-processor/ChibiOS//os/hal/include/usb.h"
 943              		.file 51 "../lib/e-puck2_main-processor/ChibiOS//os/hal/ports/STM32/LLD/OTGv1/usb_lld.h"
 944              		.file 52 "../lib/e-puck2_main-processor/ChibiOS//os/hal/ports/STM32/LLD/OTGv1/stm32_otg.h"
 945              		.file 53 "../lib/e-puck2_main-processor/ChibiOS//os/hal/include/serial_usb.h"
 946              		.file 54 "../lib/e-puck2_main-processor/src/usbcfg.h"
 947              		.file 55 "c:\\users\\sandr\\desktop\\eclipse_e-puck2\\tools\\gcc-arm-none-eabi-7-2017-q4-major-win
 948              		.file 56 "c:\\users\\sandr\\desktop\\eclipse_e-puck2\\tools\\gcc-arm-none-eabi-7-2017-q4-major-win
 949              		.file 57 "c:\\users\\sandr\\desktop\\eclipse_e-puck2\\tools\\gcc-arm-none-eabi-7-2017-q4-major-win
 950              		.file 58 "c:\\users\\sandr\\desktop\\eclipse_e-puck2\\tools\\gcc-arm-none-eabi-7-2017-q4-major-win
 951              		.file 59 "c:\\users\\sandr\\desktop\\eclipse_e-puck2\\tools\\gcc-arm-none-eabi-7-2017-q4-major-win
 952              		.file 60 "orientation.h"
 953              		.file 61 "../lib/e-puck2_main-processor/src/sensors/proximity.h"
 954              		.file 62 "../lib/e-puck2_main-processor/ChibiOS//os/rt/include/chthreads.h"