ARM GAS  C:\Users\sandr\AppData\Local\Temp\ccsQ1NSe.s 			page 1


   1              		.cpu cortex-m4
   2              		.eabi_attribute 27, 1
   3              		.eabi_attribute 28, 1
   4              		.eabi_attribute 20, 1
   5              		.eabi_attribute 21, 1
   6              		.eabi_attribute 23, 3
   7              		.eabi_attribute 24, 1
   8              		.eabi_attribute 25, 1
   9              		.eabi_attribute 26, 1
  10              		.eabi_attribute 30, 2
  11              		.eabi_attribute 34, 1
  12              		.eabi_attribute 18, 4
  13              		.file	"motors_control.c"
  14              		.text
  15              	.Ltext0:
  16              		.cfi_sections	.debug_frame
  17              		.section	.text.motor_control_thd,"ax",%progbits
  18              		.align	1
  19              		.p2align 4,,15
  20              		.syntax unified
  21              		.thumb
  22              		.thumb_func
  23              		.fpu fpv4-sp-d16
  24              		.type	motor_control_thd, %function
  25              	motor_control_thd:
  26              	.LFB257:
  27              		.file 1 "motors_control.c"
  28              		.loc 1 63 0
  29              		.cfi_startproc
  30              		@ args = 0, pretend = 0, frame = 16
  31              		@ frame_needed = 0, uses_anonymous_args = 0
  32              	.LVL0:
  33 0000 2DE9F04F 		push	{r4, r5, r6, r7, r8, r9, r10, fp, lr}
  34              		.cfi_def_cfa_offset 36
  35              		.cfi_offset 4, -36
  36              		.cfi_offset 5, -32
  37              		.cfi_offset 6, -28
  38              		.cfi_offset 7, -24
  39              		.cfi_offset 8, -20
  40              		.cfi_offset 9, -16
  41              		.cfi_offset 10, -12
  42              		.cfi_offset 11, -8
  43              		.cfi_offset 14, -4
  44 0004 2DED068B 		vpush.64	{d8, d9, d10}
  45              		.cfi_def_cfa_offset 60
  46              		.cfi_offset 80, -60
  47              		.cfi_offset 81, -56
  48              		.cfi_offset 82, -52
  49              		.cfi_offset 83, -48
  50              		.cfi_offset 84, -44
  51              		.cfi_offset 85, -40
  52              	.LBB62:
  53              	.LBB63:
  54              		.file 2 "../lib/e-puck2_main-processor/ChibiOS//os/rt/include/chregistry.h"
  55              		.loc 2 135 0
  56 0008 B74D     		ldr	r5, .L48
  57              	.LBE63:
ARM GAS  C:\Users\sandr\AppData\Local\Temp\ccsQ1NSe.s 			page 2


  58              	.LBE62:
  59              		.loc 1 63 0
  60 000a B84B     		ldr	r3, .L48+4
  61              	.LBB66:
  62              	.LBB64:
  63              		.loc 2 135 0
  64 000c AA69     		ldr	r2, [r5, #24]
  65 000e B849     		ldr	r1, .L48+8
  66              	.LBE64:
  67              	.LBE66:
  68              		.loc 1 63 0
  69 0010 1B68     		ldr	r3, [r3]
  70 0012 DFF81093 		ldr	r9, .L48+60
  71 0016 DFF81083 		ldr	r8, .L48+64
  72 001a B64F     		ldr	r7, .L48+12
  73              	.LBB67:
  74              	.LBB68:
  75              	.LBB69:
  76              	.LBB70:
  77              		.loc 1 132 0
  78 001c 9FEDB68A 		vldr.32	s16, .L48+16
  79              		.loc 1 137 0
  80 0020 DFEDB69A 		vldr.32	s19, .L48+20
  81              	.LBE70:
  82              	.LBE69:
  83              		.loc 1 109 0
  84 0024 DFEDB68A 		vldr.32	s17, .L48+24
  85 0028 9FEDB6AA 		vldr.32	s20, .L48+28
  86              	.LBB74:
  87              	.LBB71:
  88              		.loc 1 134 0
  89 002c 9FEDB69A 		vldr.32	s18, .L48+32
  90 0030 DFF8F8B2 		ldr	fp, .L48+68
  91              	.LBE71:
  92              	.LBE74:
  93              	.LBE68:
  94              	.LBE67:
  95              	.LBB80:
  96              	.LBB65:
  97              		.loc 2 135 0
  98 0034 9161     		str	r1, [r2, #24]
  99              	.LBE65:
 100              	.LBE80:
 101              		.loc 1 63 0
 102 0036 85B0     		sub	sp, sp, #20
 103              		.cfi_def_cfa_offset 80
 104              		.loc 1 63 0
 105 0038 0393     		str	r3, [sp, #12]
 106              	.LVL1:
 107              	.L28:
 108              	.LBB81:
 109              	.LBB82:
 110              	.LBB83:
 111              	.LBB84:
 112              	.LBB85:
 113              	.LBB86:
 114              	.LBB87:
ARM GAS  C:\Users\sandr\AppData\Local\Temp\ccsQ1NSe.s 			page 3


 115              		.file 3 "../lib/e-puck2_main-processor/ChibiOS//os/ext/CMSIS/include/core_cmFunc.h"
 116              		.loc 3 546 0
 117 003a 2023     		movs	r3, #32
 118              		.syntax unified
 119              	@ 546 "../lib/e-puck2_main-processor/ChibiOS//os/ext/CMSIS/include/core_cmFunc.h" 1
 120 003c 83F31188 		MSR basepri, r3
 121              	@ 0 "" 2
 122              	.LVL2:
 123              		.thumb
 124              		.syntax unified
 125              	.LBE87:
 126              	.LBE86:
 127              	.LBE85:
 128              		.file 4 "../lib/e-puck2_main-processor/ChibiOS//os/rt/include/chsys.h"
 129              		.loc 4 349 0
 130 0040 FFF7FEFF 		bl	_stats_start_measure_crit_thd
 131              	.LVL3:
 132              		.loc 4 350 0
 133 0044 FFF7FEFF 		bl	_dbg_check_lock
 134              	.LVL4:
 135              	.LBE84:
 136              	.LBE83:
 137              	.LBB88:
 138              	.LBB89:
 139              		.file 5 "../lib/e-puck2_main-processor/ChibiOS//os/rt/include/chvt.h"
 140              		.loc 5 231 0
 141 0048 AE6A     		ldr	r6, [r5, #40]
 142              	.LBE89:
 143              	.LBE88:
 144              	.LBB90:
 145              	.LBB91:
 146              		.loc 4 360 0
 147 004a FFF7FEFF 		bl	_dbg_check_unlock
 148              	.LVL5:
 149              		.loc 4 361 0
 150 004e FFF7FEFF 		bl	_stats_stop_measure_crit_thd
 151              	.LVL6:
 152              		.loc 4 367 0
 153 0052 2B68     		ldr	r3, [r5]
 154 0054 AB42     		cmp	r3, r5
 155 0056 07D0     		beq	.L2
 156 0058 AA69     		ldr	r2, [r5, #24]
 157 005a 9B68     		ldr	r3, [r3, #8]
 158 005c 9268     		ldr	r2, [r2, #8]
 159 005e 9A42     		cmp	r2, r3
 160 0060 02D2     		bcs	.L2
 161 0062 AA48     		ldr	r0, .L48+36
 162 0064 FFF7FEFF 		bl	chSysHalt
 163              	.LVL7:
 164              	.L2:
 165              	.LBB92:
 166              	.LBB93:
 167              	.LBB94:
 168              		.loc 3 546 0
 169 0068 0024     		movs	r4, #0
 170              		.syntax unified
 171              	@ 546 "../lib/e-puck2_main-processor/ChibiOS//os/ext/CMSIS/include/core_cmFunc.h" 1
ARM GAS  C:\Users\sandr\AppData\Local\Temp\ccsQ1NSe.s 			page 4


 172 006a 84F31188 		MSR basepri, r4
 173              	@ 0 "" 2
 174              	.LVL8:
 175              		.thumb
 176              		.syntax unified
 177              	.LBE94:
 178              	.LBE93:
 179              	.LBE92:
 180              	.LBE91:
 181              	.LBE90:
 182              	.LBE82:
 183              	.LBE81:
 184              		.loc 1 75 0
 185 006e FFF7FEFF 		bl	get_norme
 186              	.LVL9:
 187              	.LBB95:
 188              	.LBB96:
 189              		.loc 1 93 0
 190 0072 B0F5FA7F 		cmp	r0, #500
 191 0076 06DB     		blt	.L3
 192              		.loc 1 98 0
 193 0078 A54B     		ldr	r3, .L48+40
 194 007a C417     		asrs	r4, r0, #31
 195 007c 83FB0023 		smull	r2, r3, r3, r0
 196 0080 C4EB6304 		rsb	r4, r4, r3, asr #1
 197 0084 24B2     		sxth	r4, r4
 198              	.LVL10:
 199              	.L3:
 200              	.LBE96:
 201              	.LBE95:
 202              		.loc 1 77 0
 203 0086 FFF7FEFF 		bl	is_there_obstacle
 204              	.LVL11:
 205 008a 0028     		cmp	r0, #0
 206 008c 5ED0     		beq	.L4
 207              	.LVL12:
 208              	.LBB97:
 209              	.LBB98:
 210              		.loc 1 187 0
 211 008e FFF7FEFF 		bl	index_highest_sensor_value
 212              	.LVL13:
 213 0092 8246     		mov	r10, r0
 214              	.LVL14:
 215              		.loc 1 191 0
 216 0094 FFF7FEFF 		bl	get_mode_deplacement
 217              	.LVL15:
 218 0098 BAF1050F 		cmp	r10, #5
 219 009c 0246     		mov	r2, r0
 220              	.LVL16:
 221 009e 0AD8     		bhi	.L8
 222 00a0 0123     		movs	r3, #1
 223 00a2 03FA0AF3 		lsl	r3, r3, r10
 224 00a6 13F02A0F 		tst	r3, #42
 225 00aa 40F00681 		bne	.L7
 226 00ae 13F0150F 		tst	r3, #21
 227 00b2 40F00D81 		bne	.L42
 228              	.L8:
ARM GAS  C:\Users\sandr\AppData\Local\Temp\ccsQ1NSe.s 			page 5


 229 00b6 974B     		ldr	r3, .L48+44
 230 00b8 B3F90000 		ldrsh	r0, [r3]
 231              	.LVL17:
 232              	.L6:
 233              	.LBB99:
 234              	.LBB100:
 235              		.loc 1 173 0
 236 00bc 99F80030 		ldrb	r3, [r9]	@ zero_extendqisi2
 237 00c0 03EB4003 		add	r3, r3, r0, lsl #1
 238 00c4 5BB2     		sxtb	r3, r3
 239              		.loc 1 175 0
 240 00c6 322B     		cmp	r3, #50
 241 00c8 00F3D780 		bgt	.L43
 242              		.loc 1 177 0
 243 00cc 13F1320F 		cmn	r3, #50
 244 00d0 80F2EF80 		bge	.L44
 245              		.loc 1 178 0
 246 00d4 CE23     		movs	r3, #206
 247 00d6 89F80030 		strb	r3, [r9]
 248 00da 4FF6CE73 		movw	r3, #65486
 249              	.L10:
 250              		.loc 1 181 0
 251 00de 8E49     		ldr	r1, .L48+48
 252 00e0 B1F900C0 		ldrsh	ip, [r1]
 253              		.loc 1 182 0
 254 00e4 0880     		strh	r0, [r1]	@ movhi
 255              		.loc 1 181 0
 256 00e6 A0EB0C01 		sub	r1, r0, ip
 257 00ea 01EB8101 		add	r1, r1, r1, lsl #2
 258 00ee 8900     		lsls	r1, r1, #2
 259 00f0 8000     		lsls	r0, r0, #2
 260 00f2 00EB6100 		add	r0, r0, r1, asr #1
 261 00f6 1844     		add	r0, r0, r3
 262              	.LBE100:
 263              	.LBE99:
 264              		.loc 1 212 0
 265 00f8 D2B2     		uxtb	r2, r2
 266 00fa 884B     		ldr	r3, .L48+52
 267 00fc 012A     		cmp	r2, #1
 268              	.LBB104:
 269              	.LBB101:
 270              		.loc 1 181 0
 271 00fe 80B2     		uxth	r0, r0
 272              	.LVL18:
 273 0100 1B88     		ldrh	r3, [r3]
 274              	.LBE101:
 275              	.LBE104:
 276              		.loc 1 212 0
 277 0102 40F2CC80 		bls	.L45
 278              		.loc 1 217 0
 279 0106 C3F57E42 		rsb	r2, r3, #65024
 280 010a 7032     		adds	r2, r2, #112
 281              		.loc 1 216 0
 282 010c A3F5C873 		sub	r3, r3, #400
 283              		.loc 1 217 0
 284 0110 121A     		subs	r2, r2, r0
 285              		.loc 1 216 0
ARM GAS  C:\Users\sandr\AppData\Local\Temp\ccsQ1NSe.s 			page 6


 286 0112 0344     		add	r3, r3, r0
 287              		.loc 1 217 0
 288 0114 3A80     		strh	r2, [r7]	@ movhi
 289              		.loc 1 216 0
 290 0116 A8F80030 		strh	r3, [r8]	@ movhi
 291              	.L13:
 292              		.loc 1 219 0
 293 011a 14B9     		cbnz	r4, .L14
 294              		.loc 1 220 0
 295 011c A8F80040 		strh	r4, [r8]	@ movhi
 296              		.loc 1 221 0
 297 0120 3C80     		strh	r4, [r7]	@ movhi
 298              	.L14:
 299              		.loc 1 224 0
 300 0122 1AF0FD0F 		tst	r10, #253
 301 0126 00F09F80 		beq	.L15
 302 012a BAF1040F 		cmp	r10, #4
 303 012e 00F09B80 		beq	.L15
 304              		.loc 1 228 0
 305 0132 B7F90000 		ldrsh	r0, [r7]
 306 0136 FFF7FEFF 		bl	right_motor_set_speed
 307              	.LVL19:
 308              		.loc 1 229 0
 309 013a B8F90000 		ldrsh	r0, [r8]
 310 013e FFF7FEFF 		bl	left_motor_set_speed
 311              	.LVL20:
 312              	.L17:
 313              	.LBE98:
 314              	.LBE97:
 315              		.loc 1 85 0
 316 0142 B11C     		adds	r1, r6, #2
 317 0144 3046     		mov	r0, r6
 318 0146 FFF7FEFF 		bl	chThdSleepUntilWindowed
 319              	.LVL21:
 320              		.loc 1 73 0
 321 014a 76E7     		b	.L28
 322              	.L4:
 323              		.loc 1 80 0
 324 014c 89F80000 		strb	r0, [r9]
 325              	.LVL22:
 326              	.LBB109:
 327              	.LBB77:
 328              	.LBB75:
 329              	.LBB72:
 330              		.loc 1 128 0
 331 0150 FFF7FEFF 		bl	get_error
 332              	.LVL23:
 333 0154 0028     		cmp	r0, #0
 334 0156 B8BF     		it	lt
 335 0158 4042     		rsblt	r0, r0, #0
 336 015a 00B2     		sxth	r0, r0
 337              	.LVL24:
 338              		.loc 1 129 0
 339 015c 00EB4003 		add	r3, r0, r0, lsl #1
 340 0160 9B00     		lsls	r3, r3, #2
 341 0162 07EE903A 		vmov	s15, r3	@ int
 342              		.loc 1 130 0
ARM GAS  C:\Users\sandr\AppData\Local\Temp\ccsQ1NSe.s 			page 7


 343 0166 9BED007A 		vldr.32	s14, [fp]
 344              		.loc 1 129 0
 345 016a F8EEE77A 		vcvt.f32.s32	s15, s15
 346              		.loc 1 130 0
 347 016e 77EE877A 		vadd.f32	s15, s15, s14
 348              		.loc 1 132 0
 349 0172 F4EEC87A 		vcmpe.f32	s15, s16
 350 0176 F1EE10FA 		vmrs	APSR_nzcv, FPSCR
 351 017a 00F38B80 		bgt	.L46
 352              		.loc 1 134 0
 353 017e F4EEC97A 		vcmpe.f32	s15, s18
 354 0182 F1EE10FA 		vmrs	APSR_nzcv, FPSCR
 355              		.loc 1 130 0
 356 0186 52BF     		itee	pl
 357 0188 CBED007A 		vstrpl.32	s15, [fp]
 358              		.loc 1 135 0
 359 018c F0EE497A 		vmovmi.f32	s15, s18
 360 0190 8BED009A 		vstrmi.32	s18, [fp]
 361              	.L20:
 362              		.loc 1 137 0
 363 0194 624A     		ldr	r2, .L48+56
 364 0196 B2F90030 		ldrsh	r3, [r2]
 365              		.loc 1 138 0
 366 019a 1080     		strh	r0, [r2]	@ movhi
 367              		.loc 1 137 0
 368 019c 07EE100A 		vmov	s14, r0	@ int
 369 01a0 C01A     		subs	r0, r0, r3
 370              	.LVL25:
 371 01a2 B8EEC76A 		vcvt.f32.s32	s12, s14
 372 01a6 07EE100A 		vmov	s14, r0	@ int
 373 01aa F7EE086A 		vmov.f32	s13, #1.5e+0
 374 01ae E6EE267A 		vfma.f32	s15, s12, s13
 375 01b2 B8EEC77A 		vcvt.f32.s32	s14, s14
 376 01b6 F5EE006A 		vmov.f32	s13, #2.5e-1
 377 01ba 27EE297A 		vmul.f32	s14, s14, s19
 378 01be E7EE267A 		vfma.f32	s15, s14, s13
 379              	.LVL26:
 380              	.LBE72:
 381              	.LBE75:
 382              		.loc 1 109 0
 383 01c2 F4EEE87A 		vcmpe.f32	s15, s17
 384 01c6 F1EE10FA 		vmrs	APSR_nzcv, FPSCR
 385 01ca 5ADD     		ble	.L47
 386 01cc B0EE4A7A 		vmov.f32	s14, s20
 387 01d0 F0EE006A 		vmov.f32	s13, #2.0e+0
 388              	.L22:
 389              		.loc 1 114 0
 390 01d4 07EE904A 		vmov	s15, r4	@ int
 391 01d8 F8EEE77A 		vcvt.f32.s32	s15, s15
 392 01dc 67EEA66A 		vmul.f32	s13, s15, s13
 393              		.loc 1 115 0
 394 01e0 67EE877A 		vmul.f32	s15, s15, s14
 395              		.loc 1 114 0
 396 01e4 BDEEE67A 		vcvt.s32.f32	s14, s13
 397              		.loc 1 115 0
 398 01e8 FDEEE77A 		vcvt.s32.f32	s15, s15
 399              		.loc 1 114 0
ARM GAS  C:\Users\sandr\AppData\Local\Temp\ccsQ1NSe.s 			page 8


 400 01ec 17EE103A 		vmov	r3, s14	@ int
 401 01f0 0FFA83FA 		sxth	r10, r3
 402              		.loc 1 115 0
 403 01f4 17EE903A 		vmov	r3, s15	@ int
 404 01f8 1CB2     		sxth	r4, r3
 405              	.LVL27:
 406              	.LBE77:
 407              	.LBE109:
 408              		.loc 1 82 0
 409 01fa 07EE904A 		vmov	s15, r4	@ int
 410              	.LBB110:
 411              	.LBB78:
 412              		.loc 1 114 0
 413 01fe A8F800A0 		strh	r10, [r8]	@ movhi
 414              		.loc 1 115 0
 415 0202 3C80     		strh	r4, [r7]	@ movhi
 416              	.LBE78:
 417              	.LBE110:
 418              		.loc 1 82 0
 419 0204 F8EEE7AA 		vcvt.f32.s32	s21, s15
 420              	.LVL28:
 421              	.LBB111:
 422              	.LBB112:
 423              		.loc 1 145 0
 424 0208 FFF7FEFF 		bl	get_mode_deplacement
 425              	.LVL29:
 426 020c 0328     		cmp	r0, #3
 427 020e 98D8     		bhi	.L17
 428 0210 DFE800F0 		tbb	[pc, r0]
 429              	.L24:
 430 0214 23       		.byte	(.L23-.L24)/2
 431 0215 1C       		.byte	(.L25-.L24)/2
 432 0216 0F       		.byte	(.L26-.L24)/2
 433 0217 02       		.byte	(.L27-.L24)/2
 434              		.p2align 1
 435              	.L27:
 436              		.loc 1 155 0
 437 0218 CAF10000 		rsb	r0, r10, #0
 438              		.loc 1 156 0
 439 021c F1EE6AAA 		vneg.f32	s21, s21
 440              	.LVL30:
 441              		.loc 1 155 0
 442 0220 FFF7FEFF 		bl	right_motor_set_speed
 443              	.LVL31:
 444              		.loc 1 156 0
 445 0224 FDEEEA7A 		vcvt.s32.f32	s15, s21
 446 0228 17EE900A 		vmov	r0, s15	@ int
 447 022c FFF7FEFF 		bl	left_motor_set_speed
 448              	.LVL32:
 449 0230 87E7     		b	.L17
 450              	.LVL33:
 451              	.L26:
 452              		.loc 1 151 0
 453 0232 F1EE6AAA 		vneg.f32	s21, s21
 454              	.LVL34:
 455 0236 FDEEEA7A 		vcvt.s32.f32	s15, s21
 456 023a 17EE900A 		vmov	r0, s15	@ int
ARM GAS  C:\Users\sandr\AppData\Local\Temp\ccsQ1NSe.s 			page 9


 457 023e FFF7FEFF 		bl	right_motor_set_speed
 458              	.LVL35:
 459              		.loc 1 152 0
 460 0242 CAF10000 		rsb	r0, r10, #0
 461 0246 FFF7FEFF 		bl	left_motor_set_speed
 462              	.LVL36:
 463 024a 7AE7     		b	.L17
 464              	.LVL37:
 465              	.L25:
 466              		.loc 1 147 0
 467 024c 2046     		mov	r0, r4
 468 024e FFF7FEFF 		bl	right_motor_set_speed
 469              	.LVL38:
 470              		.loc 1 148 0
 471 0252 5046     		mov	r0, r10
 472 0254 FFF7FEFF 		bl	left_motor_set_speed
 473              	.LVL39:
 474 0258 73E7     		b	.L17
 475              	.L23:
 476              		.loc 1 159 0
 477 025a 5046     		mov	r0, r10
 478 025c FFF7FEFF 		bl	right_motor_set_speed
 479              	.LVL40:
 480              		.loc 1 160 0
 481 0260 2046     		mov	r0, r4
 482 0262 FFF7FEFF 		bl	left_motor_set_speed
 483              	.LVL41:
 484 0266 6CE7     		b	.L17
 485              	.LVL42:
 486              	.L15:
 487              	.LBE112:
 488              	.LBE111:
 489              	.LBB113:
 490              	.LBB107:
 491              		.loc 1 225 0
 492 0268 B8F90000 		ldrsh	r0, [r8]
 493 026c FFF7FEFF 		bl	right_motor_set_speed
 494              	.LVL43:
 495              		.loc 1 226 0
 496 0270 B7F90000 		ldrsh	r0, [r7]
 497 0274 FFF7FEFF 		bl	left_motor_set_speed
 498              	.LVL44:
 499 0278 63E7     		b	.L17
 500              	.LVL45:
 501              	.L43:
 502              	.LBB105:
 503              	.LBB102:
 504              		.loc 1 176 0
 505 027a 3223     		movs	r3, #50
 506 027c 89F80030 		strb	r3, [r9]
 507 0280 2DE7     		b	.L10
 508              	.LVL46:
 509              	.L47:
 510 0282 87EEA87A 		vdiv.f32	s14, s15, s17
 511 0286 F7EE007A 		vmov.f32	s15, #1.0e+0
 512 028a 77EE276A 		vadd.f32	s13, s14, s15
 513 028e 37EEC77A 		vsub.f32	s14, s15, s14
ARM GAS  C:\Users\sandr\AppData\Local\Temp\ccsQ1NSe.s 			page 10


 514 0292 9FE7     		b	.L22
 515              	.LVL47:
 516              	.L46:
 517              	.LBE102:
 518              	.LBE105:
 519              	.LBE107:
 520              	.LBE113:
 521              	.LBB114:
 522              	.LBB79:
 523              	.LBB76:
 524              	.LBB73:
 525              		.loc 1 133 0
 526 0294 8BED008A 		vstr.32	s16, [fp]
 527 0298 F0EE487A 		vmov.f32	s15, s16
 528 029c 7AE7     		b	.L20
 529              	.LVL48:
 530              	.L45:
 531              	.LBE73:
 532              	.LBE76:
 533              	.LBE79:
 534              	.LBE114:
 535              	.LBB115:
 536              	.LBB108:
 537              		.loc 1 213 0
 538 029e C3F5C872 		rsb	r2, r3, #400
 539              		.loc 1 214 0
 540 02a2 03F5C873 		add	r3, r3, #400
 541              		.loc 1 213 0
 542 02a6 0244     		add	r2, r2, r0
 543              		.loc 1 214 0
 544 02a8 181A     		subs	r0, r3, r0
 545              		.loc 1 213 0
 546 02aa A8F80020 		strh	r2, [r8]	@ movhi
 547              		.loc 1 214 0
 548 02ae 3880     		strh	r0, [r7]	@ movhi
 549 02b0 33E7     		b	.L13
 550              	.LVL49:
 551              	.L44:
 552              	.LBB106:
 553              	.LBB103:
 554              		.loc 1 173 0
 555 02b2 89F80030 		strb	r3, [r9]
 556 02b6 9BB2     		uxth	r3, r3
 557 02b8 11E7     		b	.L10
 558              	.LVL50:
 559              	.L7:
 560 02ba 0190     		str	r0, [sp, #4]
 561              	.LBE103:
 562              	.LBE106:
 563              		.loc 1 203 0
 564 02bc FFF7FEFF 		bl	get_error_distance_to_wall_left
 565              	.LVL51:
 566 02c0 164B     		ldr	r3, .L48+52
 567 02c2 1880     		strh	r0, [r3]	@ movhi
 568              		.loc 1 204 0
 569 02c4 FFF7FEFF 		bl	get_error_orientation_left
 570              	.LVL52:
ARM GAS  C:\Users\sandr\AppData\Local\Temp\ccsQ1NSe.s 			page 11


 571 02c8 124B     		ldr	r3, .L48+44
 572 02ca 019A     		ldr	r2, [sp, #4]
 573 02cc 1880     		strh	r0, [r3]	@ movhi
 574 02ce F5E6     		b	.L6
 575              	.LVL53:
 576              	.L42:
 577 02d0 0190     		str	r0, [sp, #4]
 578              		.loc 1 197 0
 579 02d2 FFF7FEFF 		bl	get_error_distance_to_wall_right
 580              	.LVL54:
 581 02d6 114B     		ldr	r3, .L48+52
 582 02d8 1880     		strh	r0, [r3]	@ movhi
 583              		.loc 1 198 0
 584 02da FFF7FEFF 		bl	get_error_orientation_right
 585              	.LVL55:
 586 02de 0D4B     		ldr	r3, .L48+44
 587 02e0 019A     		ldr	r2, [sp, #4]
 588 02e2 1880     		strh	r0, [r3]	@ movhi
 589 02e4 EAE6     		b	.L6
 590              	.L49:
 591 02e6 00BF     		.align	2
 592              	.L48:
 593 02e8 00000000 		.word	ch
 594 02ec 00000000 		.word	__stack_chk_guard
 595 02f0 00000000 		.word	.LANCHOR0
 596 02f4 00000000 		.word	.LANCHOR7
 597 02f8 0000C842 		.word	1120403456
 598 02fc 9A99193E 		.word	1041865114
 599 0300 00401C46 		.word	1176256512
 600 0304 00000000 		.word	0
 601 0308 0000C8C2 		.word	-1027080192
 602 030c 00000000 		.word	.LANCHOR1
 603 0310 67666666 		.word	1717986919
 604 0314 00000000 		.word	.LANCHOR2
 605 0318 00000000 		.word	.LANCHOR5
 606 031c 00000000 		.word	.LANCHOR3
 607 0320 00000000 		.word	.LANCHOR9
 608 0324 00000000 		.word	.LANCHOR4
 609 0328 00000000 		.word	.LANCHOR6
 610 032c 00000000 		.word	.LANCHOR8
 611              	.LBE108:
 612              	.LBE115:
 613              		.cfi_endproc
 614              	.LFE257:
 615              		.size	motor_control_thd, .-motor_control_thd
 616              		.section	.text.motors_control_start,"ax",%progbits
 617              		.align	1
 618              		.p2align 4,,15
 619              		.global	motors_control_start
 620              		.syntax unified
 621              		.thumb
 622              		.thumb_func
 623              		.fpu fpv4-sp-d16
 624              		.type	motors_control_start, %function
 625              	motors_control_start:
 626              	.LFB264:
 627              		.loc 1 239 0
ARM GAS  C:\Users\sandr\AppData\Local\Temp\ccsQ1NSe.s 			page 12


 628              		.cfi_startproc
 629              		@ args = 0, pretend = 0, frame = 8
 630              		@ frame_needed = 0, uses_anonymous_args = 0
 631 0000 10B5     		push	{r4, lr}
 632              		.cfi_def_cfa_offset 8
 633              		.cfi_offset 4, -8
 634              		.cfi_offset 14, -4
 635 0002 0C4C     		ldr	r4, .L54
 636 0004 84B0     		sub	sp, sp, #16
 637              		.cfi_def_cfa_offset 24
 638              		.loc 1 239 0
 639 0006 2368     		ldr	r3, [r4]
 640 0008 0393     		str	r3, [sp, #12]
 641              		.loc 1 240 0
 642 000a FFF7FEFF 		bl	motors_init
 643              	.LVL56:
 644              		.loc 1 241 0
 645 000e FFF7FEFF 		bl	orientation_start
 646              	.LVL57:
 647              		.loc 1 243 0
 648 0012 0023     		movs	r3, #0
 649 0014 0093     		str	r3, [sp]
 650 0016 4122     		movs	r2, #65
 651 0018 074B     		ldr	r3, .L54+4
 652 001a 0848     		ldr	r0, .L54+8
 653 001c 4FF45E71 		mov	r1, #888
 654 0020 FFF7FEFF 		bl	chThdCreateStatic
 655              	.LVL58:
 656              		.loc 1 244 0
 657 0024 039A     		ldr	r2, [sp, #12]
 658 0026 2368     		ldr	r3, [r4]
 659 0028 9A42     		cmp	r2, r3
 660 002a 01D1     		bne	.L53
 661 002c 04B0     		add	sp, sp, #16
 662              		.cfi_remember_state
 663              		.cfi_def_cfa_offset 8
 664              		@ sp needed
 665 002e 10BD     		pop	{r4, pc}
 666              	.L53:
 667              		.cfi_restore_state
 668 0030 FFF7FEFF 		bl	__stack_chk_fail
 669              	.LVL59:
 670              	.L55:
 671              		.align	2
 672              	.L54:
 673 0034 00000000 		.word	__stack_chk_guard
 674 0038 00000000 		.word	motor_control_thd
 675 003c 00000000 		.word	.LANCHOR10
 676              		.cfi_endproc
 677              	.LFE264:
 678              		.size	motors_control_start, .-motors_control_start
 679              		.section	.bss.ancienne_erreur.11534,"aw",%nobits
 680              		.align	1
 681              		.set	.LANCHOR9,. + 0
 682              		.type	ancienne_erreur.11534, %object
 683              		.size	ancienne_erreur.11534, 2
 684              	ancienne_erreur.11534:
ARM GAS  C:\Users\sandr\AppData\Local\Temp\ccsQ1NSe.s 			page 13


 685 0000 0000     		.space	2
 686              		.section	.bss.error_distance_to_wall.11559,"aw",%nobits
 687              		.align	1
 688              		.set	.LANCHOR3,. + 0
 689              		.type	error_distance_to_wall.11559, %object
 690              		.size	error_distance_to_wall.11559, 2
 691              	error_distance_to_wall.11559:
 692 0000 0000     		.space	2
 693              		.section	.bss.error_orientation.11558,"aw",%nobits
 694              		.align	1
 695              		.set	.LANCHOR2,. + 0
 696              		.type	error_orientation.11558, %object
 697              		.size	error_orientation.11558, 2
 698              	error_orientation.11558:
 699 0000 0000     		.space	2
 700              		.section	.bss.integrale.11537,"aw",%nobits
 701              		.align	2
 702              		.set	.LANCHOR8,. + 0
 703              		.type	integrale.11537, %object
 704              		.size	integrale.11537, 4
 705              	integrale.11537:
 706 0000 00000000 		.space	4
 707              		.section	.bss.integrale_pid_orientation,"aw",%nobits
 708              		.set	.LANCHOR4,. + 0
 709              		.type	integrale_pid_orientation, %object
 710              		.size	integrale_pid_orientation, 1
 711              	integrale_pid_orientation:
 712 0000 00       		.space	1
 713              		.section	.bss.motor_control_thd_wa,"aw",%nobits
 714              		.align	3
 715              		.set	.LANCHOR10,. + 0
 716              		.type	motor_control_thd_wa, %object
 717              		.size	motor_control_thd_wa, 888
 718              	motor_control_thd_wa:
 719 0000 00000000 		.space	888
 719      00000000 
 719      00000000 
 719      00000000 
 719      00000000 
 720              		.section	.bss.old_error.11552,"aw",%nobits
 721              		.align	1
 722              		.set	.LANCHOR5,. + 0
 723              		.type	old_error.11552, %object
 724              		.size	old_error.11552, 2
 725              	old_error.11552:
 726 0000 0000     		.space	2
 727              		.section	.bss.speed_ext,"aw",%nobits
 728              		.align	1
 729              		.set	.LANCHOR6,. + 0
 730              		.type	speed_ext, %object
 731              		.size	speed_ext, 2
 732              	speed_ext:
 733 0000 0000     		.space	2
 734              		.section	.bss.speed_int,"aw",%nobits
 735              		.align	1
 736              		.set	.LANCHOR7,. + 0
 737              		.type	speed_int, %object
ARM GAS  C:\Users\sandr\AppData\Local\Temp\ccsQ1NSe.s 			page 14


 738              		.size	speed_int, 2
 739              	speed_int:
 740 0000 0000     		.space	2
 741              		.section	.rodata.__FUNCTION__.11519,"a",%progbits
 742              		.align	2
 743              		.set	.LANCHOR0,. + 0
 744              		.type	__FUNCTION__.11519, %object
 745              		.size	__FUNCTION__.11519, 18
 746              	__FUNCTION__.11519:
 747 0000 6D6F746F 		.ascii	"motor_control_thd\000"
 747      725F636F 
 747      6E74726F 
 747      6C5F7468 
 747      6400
 748              		.section	.rodata.__func__.7725,"a",%progbits
 749              		.align	2
 750              		.set	.LANCHOR1,. + 0
 751              		.type	__func__.7725, %object
 752              		.size	__func__.7725, 12
 753              	__func__.7725:
 754 0000 63685379 		.ascii	"chSysUnlock\000"
 754      73556E6C 
 754      6F636B00 
 755              		.text
 756              	.Letext0:
 757              		.file 6 "c:\\users\\sandr\\desktop\\eclipse_e-puck2\\tools\\gcc-arm-none-eabi-7-2017-q4-major-win3
 758              		.file 7 "c:\\users\\sandr\\desktop\\eclipse_e-puck2\\tools\\gcc-arm-none-eabi-7-2017-q4-major-win3
 759              		.file 8 "c:\\users\\sandr\\desktop\\eclipse_e-puck2\\tools\\gcc-arm-none-eabi-7-2017-q4-major-win3
 760              		.file 9 "c:\\users\\sandr\\desktop\\eclipse_e-puck2\\tools\\gcc-arm-none-eabi-7-2017-q4-major-win3
 761              		.file 10 "c:\\users\\sandr\\desktop\\eclipse_e-puck2\\tools\\gcc-arm-none-eabi-7-2017-q4-major-win
 762              		.file 11 "c:\\users\\sandr\\desktop\\eclipse_e-puck2\\tools\\gcc-arm-none-eabi-7-2017-q4-major-win
 763              		.file 12 "../lib/e-puck2_main-processor/ChibiOS//os/rt/ports/ARMCMx/compilers/GCC/chtypes.h"
 764              		.file 13 "../lib/e-puck2_main-processor/ChibiOS//os/rt/include/chsystypes.h"
 765              		.file 14 "../lib/e-puck2_main-processor/ChibiOS//os/rt/include/chschd.h"
 766              		.file 15 "../lib/e-puck2_main-processor/ChibiOS//os/ext/CMSIS/include/core_cm4.h"
 767              		.file 16 "../lib/e-puck2_main-processor/ChibiOS//os/ext/CMSIS/ST/system_stm32f4xx.h"
 768              		.file 17 "../lib/e-puck2_main-processor/ChibiOS//os/ext/CMSIS/ST/stm32f407xx.h"
 769              		.file 18 "../lib/e-puck2_main-processor/ChibiOS//os/rt/ports/ARMCMx/chcore.h"
 770              		.file 19 "../lib/e-puck2_main-processor/ChibiOS//os/rt/ports/ARMCMx/chcore_v7m.h"
 771              		.file 20 "../lib/e-puck2_main-processor/ChibiOS//os/rt/include/chdebug.h"
 772              		.file 21 "../lib/e-puck2_main-processor/ChibiOS//os/rt/include/chtm.h"
 773              		.file 22 "../lib/e-puck2_main-processor/ChibiOS//os/rt/include/chstats.h"
 774              		.file 23 "../lib/e-puck2_main-processor/ChibiOS//os/rt/include/chsem.h"
 775              		.file 24 "../lib/e-puck2_main-processor/ChibiOS//os/rt/include/chmtx.h"
 776              		.file 25 "../lib/e-puck2_main-processor/ChibiOS//os/rt/include/chevents.h"
 777              		.file 26 "../lib/e-puck2_main-processor/ChibiOS//os/rt/include/chqueues.h"
 778              		.file 27 "../lib/e-puck2_main-processor/ChibiOS//os/hal/ports/STM32/STM32F4xx/stm32_dma.h"
 779              		.file 28 "../lib/e-puck2_main-processor/ChibiOS//os/hal/include/hal_ioblock.h"
 780              		.file 29 "../lib/e-puck2_main-processor/ChibiOS//os/hal/ports/STM32/LLD/GPIOv2/pal_lld.h"
 781              		.file 30 "../lib/e-puck2_main-processor/ChibiOS//os/hal/include/adc.h"
 782              		.file 31 "../lib/e-puck2_main-processor/ChibiOS//os/hal/ports/STM32/STM32F4xx/adc_lld.h"
 783              		.file 32 "../lib/e-puck2_main-processor/ChibiOS//os/hal/include/can.h"
 784              		.file 33 "../lib/e-puck2_main-processor/ChibiOS//os/hal/ports/STM32/LLD/can_lld.h"
 785              		.file 34 "../lib/e-puck2_main-processor/ChibiOS//os/hal/include/dac.h"
 786              		.file 35 "../lib/e-puck2_main-processor/ChibiOS//os/hal/ports/STM32/LLD/DACv1/dac_lld.h"
 787              		.file 36 "../lib/e-puck2_main-processor/ChibiOS//os/hal/include/ext.h"
 788              		.file 37 "../lib/e-puck2_main-processor/ChibiOS//os/hal/ports/STM32/LLD/ext_lld.h"
ARM GAS  C:\Users\sandr\AppData\Local\Temp\ccsQ1NSe.s 			page 15


 789              		.file 38 "../lib/e-puck2_main-processor/ChibiOS//os/hal/include/gpt.h"
 790              		.file 39 "../lib/e-puck2_main-processor/ChibiOS//os/hal/ports/STM32/LLD/TIMv1/gpt_lld.h"
 791              		.file 40 "../lib/e-puck2_main-processor/ChibiOS//os/hal/ports/STM32/LLD/TIMv1/stm32_tim.h"
 792              		.file 41 "../lib/e-puck2_main-processor/ChibiOS//os/hal/include/i2c.h"
 793              		.file 42 "../lib/e-puck2_main-processor/ChibiOS//os/hal/ports/STM32/LLD/I2Cv1/i2c_lld.h"
 794              		.file 43 "../lib/e-puck2_main-processor/ChibiOS//os/hal/include/i2s.h"
 795              		.file 44 "../lib/e-puck2_main-processor/ChibiOS//os/hal/ports/STM32/LLD/SPIv1/i2s_lld.h"
 796              		.file 45 "../lib/e-puck2_main-processor/ChibiOS//os/hal/include/pwm.h"
 797              		.file 46 "../lib/e-puck2_main-processor/ChibiOS//os/hal/ports/STM32/LLD/TIMv1/pwm_lld.h"
 798              		.file 47 "../lib/e-puck2_main-processor/ChibiOS//os/hal/include/serial.h"
 799              		.file 48 "../lib/e-puck2_main-processor/ChibiOS//os/hal/ports/STM32/LLD/USARTv1/serial_lld.h"
 800              		.file 49 "../lib/e-puck2_main-processor/ChibiOS//os/hal/include/sdc.h"
 801              		.file 50 "../lib/e-puck2_main-processor/ChibiOS//os/hal/ports/STM32/LLD/sdc_lld.h"
 802              		.file 51 "../lib/e-puck2_main-processor/ChibiOS//os/hal/include/spi.h"
 803              		.file 52 "../lib/e-puck2_main-processor/ChibiOS//os/hal/ports/STM32/LLD/SPIv1/spi_lld.h"
 804              		.file 53 "../lib/e-puck2_main-processor/ChibiOS//os/hal/include/usb.h"
 805              		.file 54 "../lib/e-puck2_main-processor/ChibiOS//os/hal/ports/STM32/LLD/OTGv1/usb_lld.h"
 806              		.file 55 "../lib/e-puck2_main-processor/ChibiOS//os/hal/ports/STM32/LLD/OTGv1/stm32_otg.h"
 807              		.file 56 "../lib/e-puck2_main-processor/ChibiOS//os/hal/include/serial_usb.h"
 808              		.file 57 "c:\\users\\sandr\\desktop\\eclipse_e-puck2\\tools\\gcc-arm-none-eabi-7-2017-q4-major-win
 809              		.file 58 "c:\\users\\sandr\\desktop\\eclipse_e-puck2\\tools\\gcc-arm-none-eabi-7-2017-q4-major-win
 810              		.file 59 "../lib/e-puck2_main-processor/src/usbcfg.h"
 811              		.file 60 "c:\\users\\sandr\\desktop\\eclipse_e-puck2\\tools\\gcc-arm-none-eabi-7-2017-q4-major-win
 812              		.file 61 "../lib/e-puck2_main-processor/src/motors.h"
 813              		.file 62 "orientation.h"
 814              		.file 63 "../lib/e-puck2_main-processor/ChibiOS//os/rt/include/chthreads.h"
 815              		.file 64 "distance.h"