ARM GAS  C:\Users\sandr\AppData\Local\Temp\cc8lXnRE.s 			page 1


   1              		.cpu cortex-m4
   2              		.eabi_attribute 27, 1
   3              		.eabi_attribute 28, 1
   4              		.eabi_attribute 20, 1
   5              		.eabi_attribute 21, 1
   6              		.eabi_attribute 23, 3
   7              		.eabi_attribute 24, 1
   8              		.eabi_attribute 25, 1
   9              		.eabi_attribute 26, 1
  10              		.eabi_attribute 30, 2
  11              		.eabi_attribute 34, 1
  12              		.eabi_attribute 18, 4
  13              		.file	"orientation.c"
  14              		.text
  15              	.Ltext0:
  16              		.cfi_sections	.debug_frame
  17              		.section	.text.chprintf.constprop.0,"ax",%progbits
  18              		.align	1
  19              		.p2align 4,,15
  20              		.syntax unified
  21              		.thumb
  22              		.thumb_func
  23              		.fpu fpv4-sp-d16
  24              		.type	chprintf.constprop.0, %function
  25              	chprintf.constprop.0:
  26              	.LFB266:
  27              		.file 1 "../lib/e-puck2_main-processor/ChibiOS//os/hal/lib/streams/chprintf.h"
  28              		.loc 1 69 0
  29              		.cfi_startproc
  30              		@ args = 4, pretend = 12, frame = 8
  31              		@ frame_needed = 0, uses_anonymous_args = 1
  32              	.LVL0:
  33 0000 0EB4     		push	{r1, r2, r3}
  34              		.cfi_def_cfa_offset 12
  35              		.cfi_offset 1, -12
  36              		.cfi_offset 2, -8
  37              		.cfi_offset 3, -4
  38 0002 10B5     		push	{r4, lr}
  39              		.cfi_def_cfa_offset 20
  40              		.cfi_offset 4, -20
  41              		.cfi_offset 14, -16
  42 0004 83B0     		sub	sp, sp, #12
  43              		.cfi_def_cfa_offset 32
  44              		.loc 1 69 0
  45 0006 05AA     		add	r2, sp, #20
  46 0008 094C     		ldr	r4, .L6
  47 000a 52F8041B 		ldr	r1, [r2], #4
  48 000e 2368     		ldr	r3, [r4]
  49              		.loc 1 74 0
  50 0010 0848     		ldr	r0, .L6+4
  51              	.LVL1:
  52              		.loc 1 73 0
  53 0012 0092     		str	r2, [sp]
  54              		.loc 1 69 0
  55 0014 0193     		str	r3, [sp, #4]
  56              	.LVL2:
  57              		.loc 1 74 0
ARM GAS  C:\Users\sandr\AppData\Local\Temp\cc8lXnRE.s 			page 2


  58 0016 FFF7FEFF 		bl	chvprintf
  59              	.LVL3:
  60              		.loc 1 78 0
  61 001a 019A     		ldr	r2, [sp, #4]
  62 001c 2368     		ldr	r3, [r4]
  63 001e 9A42     		cmp	r2, r3
  64 0020 04D1     		bne	.L5
  65 0022 03B0     		add	sp, sp, #12
  66              		.cfi_remember_state
  67              		.cfi_def_cfa_offset 20
  68              		@ sp needed
  69 0024 BDE81040 		pop	{r4, lr}
  70              		.cfi_restore 14
  71              		.cfi_restore 4
  72              		.cfi_def_cfa_offset 12
  73 0028 03B0     		add	sp, sp, #12
  74              		.cfi_restore 3
  75              		.cfi_restore 2
  76              		.cfi_restore 1
  77              		.cfi_def_cfa_offset 0
  78 002a 7047     		bx	lr
  79              	.L5:
  80              		.cfi_restore_state
  81 002c FFF7FEFF 		bl	__stack_chk_fail
  82              	.LVL4:
  83              	.L7:
  84              		.align	2
  85              	.L6:
  86 0030 00000000 		.word	__stack_chk_guard
  87 0034 00000000 		.word	SD3
  88              		.cfi_endproc
  89              	.LFE266:
  90              		.size	chprintf.constprop.0, .-chprintf.constprop.0
  91              		.global	__aeabi_i2d
  92              		.global	__aeabi_d2iz
  93              		.section	.text.imu_reader_thd,"ax",%progbits
  94              		.align	1
  95              		.p2align 4,,15
  96              		.syntax unified
  97              		.thumb
  98              		.thumb_func
  99              		.fpu fpv4-sp-d16
 100              		.type	imu_reader_thd, %function
 101              	imu_reader_thd:
 102              	.LFB257:
 103              		.file 2 "orientation.c"
 104              		.loc 2 41 0
 105              		.cfi_startproc
 106              		@ args = 0, pretend = 0, frame = 96
 107              		@ frame_needed = 0, uses_anonymous_args = 0
 108              	.LVL5:
 109 0000 2DE9F04F 		push	{r4, r5, r6, r7, r8, r9, r10, fp, lr}
 110              		.cfi_def_cfa_offset 36
 111              		.cfi_offset 4, -36
 112              		.cfi_offset 5, -32
 113              		.cfi_offset 6, -28
 114              		.cfi_offset 7, -24
ARM GAS  C:\Users\sandr\AppData\Local\Temp\cc8lXnRE.s 			page 3


 115              		.cfi_offset 8, -20
 116              		.cfi_offset 9, -16
 117              		.cfi_offset 10, -12
 118              		.cfi_offset 11, -8
 119              		.cfi_offset 14, -4
 120              	.LBB58:
 121              	.LBB59:
 122              		.file 3 "../lib/e-puck2_main-processor/ChibiOS//os/rt/include/chregistry.h"
 123              		.loc 3 135 0
 124 0004 4F4D     		ldr	r5, .L18
 125              	.LBE59:
 126              	.LBE58:
 127              		.loc 2 41 0
 128 0006 504B     		ldr	r3, .L18+4
 129              	.LBB62:
 130              	.LBB60:
 131              		.loc 3 135 0
 132 0008 AA69     		ldr	r2, [r5, #24]
 133 000a 5049     		ldr	r1, .L18+8
 134              	.LBE60:
 135              	.LBE62:
 136              		.loc 2 45 0
 137 000c 5048     		ldr	r0, .L18+12
 138              	.LVL6:
 139 000e DFF86CA1 		ldr	r10, .L18+56
 140 0012 DFF86C91 		ldr	r9, .L18+60
 141              	.LBB63:
 142              	.LBB64:
 143              		.loc 2 68 0
 144 0016 DFF86C81 		ldr	r8, .L18+64
 145              	.LBE64:
 146              	.LBE63:
 147              		.loc 2 41 0
 148 001a 2DED048B 		vpush.64	{d8, d9}
 149              		.cfi_def_cfa_offset 52
 150              		.cfi_offset 80, -52
 151              		.cfi_offset 81, -48
 152              		.cfi_offset 82, -44
 153              		.cfi_offset 83, -40
 154 001e 99B0     		sub	sp, sp, #100
 155              		.cfi_def_cfa_offset 152
 156              	.LBB98:
 157              	.LBB61:
 158              		.loc 3 135 0
 159 0020 9161     		str	r1, [r2, #24]
 160              	.LBE61:
 161              	.LBE98:
 162              		.loc 2 41 0
 163 0022 1B68     		ldr	r3, [r3]
 164              		.loc 2 45 0
 165 0024 4B49     		ldr	r1, .L18+16
 166              		.loc 2 41 0
 167 0026 1793     		str	r3, [sp, #92]
 168              		.loc 2 45 0
 169 0028 FFF7FEFF 		bl	messagebus_find_topic_blocking
 170              	.LVL7:
 171              	.LBB99:
ARM GAS  C:\Users\sandr\AppData\Local\Temp\cc8lXnRE.s 			page 4


 172              	.LBB95:
 173              	.LBB65:
 174              	.LBB66:
 175              		.loc 2 99 0
 176 002c 9FED4A9A 		vldr.32	s18, .L18+20
 177 0030 DFED4A8A 		vldr.32	s17, .L18+24
 178              	.LBE66:
 179              	.LBE65:
 180              	.LBE95:
 181              	.LBE99:
 182              		.loc 2 45 0
 183 0034 0190     		str	r0, [sp, #4]
 184              	.LVL8:
 185 0036 09E0     		b	.L14
 186              	.LVL9:
 187              	.L17:
 188              	.LBB100:
 189              	.LBB96:
 190              		.loc 2 78 0
 191 0038 B442     		cmp	r4, r6
 192              		.loc 2 81 0
 193 003a 494A     		ldr	r2, .L18+28
 194              		.loc 2 79 0
 195 003c ACBF     		ite	ge
 196 003e 0323     		movge	r3, #3
 197              		.loc 2 81 0
 198 0040 0123     		movlt	r3, #1
 199 0042 1370     		strb	r3, [r2]
 200              	.L12:
 201              	.LBE96:
 202              	.LBE100:
 203              		.loc 2 54 0 discriminator 1
 204 0044 391D     		adds	r1, r7, #4
 205 0046 3846     		mov	r0, r7
 206 0048 FFF7FEFF 		bl	chThdSleepUntilWindowed
 207              	.LVL10:
 208              	.L14:
 209              	.LBB101:
 210              	.LBB102:
 211              	.LBB103:
 212              	.LBB104:
 213              	.LBB105:
 214              	.LBB106:
 215              	.LBB107:
 216              		.file 4 "../lib/e-puck2_main-processor/ChibiOS//os/ext/CMSIS/include/core_cmFunc.h"
 217              		.loc 4 546 0 discriminator 1
 218 004c 2023     		movs	r3, #32
 219              		.syntax unified
 220              	@ 546 "../lib/e-puck2_main-processor/ChibiOS//os/ext/CMSIS/include/core_cmFunc.h" 1
 221 004e 83F31188 		MSR basepri, r3
 222              	@ 0 "" 2
 223              	.LVL11:
 224              		.thumb
 225              		.syntax unified
 226              	.LBE107:
 227              	.LBE106:
 228              	.LBE105:
ARM GAS  C:\Users\sandr\AppData\Local\Temp\cc8lXnRE.s 			page 5


 229              		.file 5 "../lib/e-puck2_main-processor/ChibiOS//os/rt/include/chsys.h"
 230              		.loc 5 349 0 discriminator 1
 231 0052 FFF7FEFF 		bl	_stats_start_measure_crit_thd
 232              	.LVL12:
 233              		.loc 5 350 0 discriminator 1
 234 0056 FFF7FEFF 		bl	_dbg_check_lock
 235              	.LVL13:
 236              	.LBE104:
 237              	.LBE103:
 238              	.LBB108:
 239              	.LBB109:
 240              		.file 6 "../lib/e-puck2_main-processor/ChibiOS//os/rt/include/chvt.h"
 241              		.loc 6 231 0 discriminator 1
 242 005a AF6A     		ldr	r7, [r5, #40]
 243              	.LBE109:
 244              	.LBE108:
 245              	.LBB110:
 246              	.LBB111:
 247              		.loc 5 360 0 discriminator 1
 248 005c FFF7FEFF 		bl	_dbg_check_unlock
 249              	.LVL14:
 250              		.loc 5 361 0 discriminator 1
 251 0060 FFF7FEFF 		bl	_stats_stop_measure_crit_thd
 252              	.LVL15:
 253              		.loc 5 367 0 discriminator 1
 254 0064 2B68     		ldr	r3, [r5]
 255 0066 AB42     		cmp	r3, r5
 256 0068 07D0     		beq	.L9
 257              		.loc 5 367 0 is_stmt 0
 258 006a AA69     		ldr	r2, [r5, #24]
 259 006c 9B68     		ldr	r3, [r3, #8]
 260 006e 9268     		ldr	r2, [r2, #8]
 261 0070 9A42     		cmp	r2, r3
 262 0072 02D2     		bcs	.L9
 263 0074 3B48     		ldr	r0, .L18+32
 264 0076 FFF7FEFF 		bl	chSysHalt
 265              	.LVL16:
 266              	.L9:
 267              	.LBB112:
 268              	.LBB113:
 269              	.LBB114:
 270              		.loc 4 546 0 is_stmt 1
 271 007a 0026     		movs	r6, #0
 272              		.syntax unified
 273              	@ 546 "../lib/e-puck2_main-processor/ChibiOS//os/ext/CMSIS/include/core_cmFunc.h" 1
 274 007c 86F31188 		MSR basepri, r6
 275              	@ 0 "" 2
 276              	.LVL17:
 277              		.thumb
 278              		.syntax unified
 279              	.LBE114:
 280              	.LBE113:
 281              	.LBE112:
 282              	.LBE111:
 283              	.LBE110:
 284              	.LBE102:
 285              	.LBE101:
ARM GAS  C:\Users\sandr\AppData\Local\Temp\cc8lXnRE.s 			page 6


 286              		.loc 2 52 0
 287 0080 5022     		movs	r2, #80
 288 0082 03A9     		add	r1, sp, #12
 289 0084 0198     		ldr	r0, [sp, #4]
 290 0086 FFF7FEFF 		bl	messagebus_topic_wait
 291              	.LVL18:
 292              	.LBB115:
 293              	.LBB97:
 294              		.loc 2 61 0
 295 008a 3046     		mov	r0, r6
 296 008c FFF7FEFF 		bl	get_acc
 297              	.LVL19:
 298 0090 08EE100A 		vmov	s16, r0	@ int
 299              	.LVL20:
 300              		.loc 2 62 0
 301 0094 0120     		movs	r0, #1
 302 0096 FFF7FEFF 		bl	get_acc
 303              	.LVL21:
 304              	.LBB74:
 305              	.LBB67:
 306              		.loc 2 99 0
 307 009a BAF90030 		ldrsh	r3, [r10]
 308              	.LBE67:
 309              	.LBE74:
 310              		.loc 2 68 0
 311 009e 3249     		ldr	r1, .L18+36
 312              	.LBB75:
 313              	.LBB68:
 314              		.loc 2 99 0
 315 00a0 07EE103A 		vmov	s14, r3	@ int
 316              	.LBE68:
 317              	.LBE75:
 318              	.LBB76:
 319              	.LBB77:
 320 00a4 B9F90030 		ldrsh	r3, [r9]
 321              	.LBE77:
 322              	.LBE76:
 323              	.LBB84:
 324              	.LBB69:
 325 00a8 B8EEC77A 		vcvt.f32.s32	s14, s14
 326              	.LBE69:
 327              	.LBE84:
 328              	.LBB85:
 329              	.LBB78:
 330 00ac 07EE903A 		vmov	s15, r3	@ int
 331 00b0 06EE900A 		vmov	s13, r0	@ int
 332 00b4 F8EEE77A 		vcvt.f32.s32	s15, s15
 333              	.LBE78:
 334              	.LBE85:
 335              	.LBB86:
 336              	.LBB70:
 337 00b8 B8EEC88A 		vcvt.f32.s32	s16, s16
 338              	.LVL22:
 339 00bc 27EE097A 		vmul.f32	s14, s14, s18
 340              	.LBE70:
 341              	.LBE86:
 342              	.LBB87:
ARM GAS  C:\Users\sandr\AppData\Local\Temp\cc8lXnRE.s 			page 7


 343              	.LBB79:
 344 00c0 F8EEE66A 		vcvt.f32.s32	s13, s13
 345 00c4 67EE897A 		vmul.f32	s15, s15, s18
 346              	.LBE79:
 347              	.LBE87:
 348              	.LBB88:
 349              	.LBB71:
 350 00c8 A8EE287A 		vfma.f32	s14, s16, s17
 351              	.LBE71:
 352              	.LBE88:
 353              		.loc 2 68 0
 354 00cc 4046     		mov	r0, r8
 355              	.LVL23:
 356              	.LBB89:
 357              	.LBB80:
 358              		.loc 2 99 0
 359 00ce E6EEA87A 		vfma.f32	s15, s13, s17
 360              	.LBE80:
 361              	.LBE89:
 362              	.LBB90:
 363              	.LBB72:
 364 00d2 BDEEC77A 		vcvt.s32.f32	s14, s14
 365              	.LBE72:
 366              	.LBE90:
 367              	.LBB91:
 368              	.LBB81:
 369 00d6 FDEEE77A 		vcvt.s32.f32	s15, s15
 370              	.LBE81:
 371              	.LBE91:
 372              	.LBB92:
 373              	.LBB73:
 374 00da 17EE103A 		vmov	r3, s14	@ int
 375 00de 0FFA83FB 		sxth	fp, r3
 376              	.LVL24:
 377              	.LBE73:
 378              	.LBE92:
 379              	.LBB93:
 380              	.LBB82:
 381 00e2 17EE903A 		vmov	r3, s15	@ int
 382              	.LBE82:
 383              	.LBE93:
 384              		.loc 2 68 0
 385 00e6 5A46     		mov	r2, fp
 386              	.LBB94:
 387              	.LBB83:
 388              		.loc 2 99 0
 389 00e8 1CB2     		sxth	r4, r3
 390              	.LVL25:
 391              		.loc 2 100 0
 392 00ea AAF800B0 		strh	fp, [r10]	@ movhi
 393              		.loc 2 101 0
 394 00ee A9F80040 		strh	r4, [r9]	@ movhi
 395              	.LVL26:
 396              	.LBE83:
 397              	.LBE94:
 398              		.loc 2 68 0
 399 00f2 FFF7FEFF 		bl	chprintf.constprop.0
ARM GAS  C:\Users\sandr\AppData\Local\Temp\cc8lXnRE.s 			page 8


 400              	.LVL27:
 401              		.loc 2 69 0
 402 00f6 2246     		mov	r2, r4
 403 00f8 1C49     		ldr	r1, .L18+40
 404 00fa 4046     		mov	r0, r8
 405 00fc FFF7FEFF 		bl	chprintf.constprop.0
 406              	.LVL28:
 407              		.loc 2 72 0
 408 0100 04FB04F0 		mul	r0, r4, r4
 409 0104 0BFB0B00 		mla	r0, fp, fp, r0
 410 0108 FFF7FEFF 		bl	__aeabi_i2d
 411              	.LVL29:
 412 010c 41EC100B 		vmov	d0, r0, r1
 413 0110 FFF7FEFF 		bl	sqrt
 414              	.LVL30:
 415 0114 51EC100B 		vmov	r0, r1, d0
 416 0118 FFF7FEFF 		bl	__aeabi_d2iz
 417              	.LVL31:
 418              		.loc 2 74 0
 419 011c 144B     		ldr	r3, .L18+44
 420 011e A3F800B0 		strh	fp, [r3]	@ movhi
 421              		.loc 2 75 0
 422 0122 144B     		ldr	r3, .L18+48
 423              		.loc 2 78 0
 424 0124 0BFB04F2 		mul	r2, fp, r4
 425              		.loc 2 75 0
 426 0128 1C80     		strh	r4, [r3]	@ movhi
 427              		.loc 2 72 0
 428 012a 134B     		ldr	r3, .L18+52
 429              		.loc 2 78 0
 430 012c B242     		cmp	r2, r6
 431              		.loc 2 72 0
 432 012e 1880     		strh	r0, [r3]	@ movhi
 433              		.loc 2 78 0
 434 0130 82DA     		bge	.L17
 435              		.loc 2 82 0
 436 0132 002C     		cmp	r4, #0
 437 0134 03DB     		blt	.L13
 438              		.loc 2 83 0
 439 0136 0A4A     		ldr	r2, .L18+28
 440 0138 0223     		movs	r3, #2
 441 013a 1370     		strb	r3, [r2]
 442 013c 82E7     		b	.L12
 443              	.L13:
 444              		.loc 2 85 0
 445 013e 084B     		ldr	r3, .L18+28
 446 0140 1E70     		strb	r6, [r3]
 447 0142 7FE7     		b	.L12
 448              	.L19:
 449              		.align	2
 450              	.L18:
 451 0144 00000000 		.word	ch
 452 0148 00000000 		.word	__stack_chk_guard
 453 014c 00000000 		.word	.LANCHOR0
 454 0150 00000000 		.word	.LANCHOR1
 455 0154 00000000 		.word	.LC0
 456 0158 46B4763F 		.word	1064744006
ARM GAS  C:\Users\sandr\AppData\Local\Temp\cc8lXnRE.s 			page 9


 457 015c A7BB143D 		.word	1024768935
 458 0160 00000000 		.word	.LANCHOR8
 459 0164 00000000 		.word	.LANCHOR2
 460 0168 08000000 		.word	.LC1
 461 016c 18000000 		.word	.LC2
 462 0170 00000000 		.word	.LANCHOR6
 463 0174 00000000 		.word	.LANCHOR7
 464 0178 00000000 		.word	.LANCHOR5
 465 017c 00000000 		.word	.LANCHOR3
 466 0180 00000000 		.word	.LANCHOR4
 467 0184 00000000 		.word	SD3
 468              	.LBE97:
 469              	.LBE115:
 470              		.cfi_endproc
 471              	.LFE257:
 472              		.size	imu_reader_thd, .-imu_reader_thd
 473              		.section	.text.orientation_start,"ax",%progbits
 474              		.align	1
 475              		.p2align 4,,15
 476              		.global	orientation_start
 477              		.syntax unified
 478              		.thumb
 479              		.thumb_func
 480              		.fpu fpv4-sp-d16
 481              		.type	orientation_start, %function
 482              	orientation_start:
 483              	.LFB260:
 484              		.loc 2 109 0
 485              		.cfi_startproc
 486              		@ args = 0, pretend = 0, frame = 8
 487              		@ frame_needed = 0, uses_anonymous_args = 0
 488 0000 10B5     		push	{r4, lr}
 489              		.cfi_def_cfa_offset 8
 490              		.cfi_offset 4, -8
 491              		.cfi_offset 14, -4
 492 0002 0F4C     		ldr	r4, .L24
 493              		.loc 2 111 0
 494 0004 0F4A     		ldr	r2, .L24+4
 495              		.loc 2 109 0
 496 0006 2368     		ldr	r3, [r4]
 497              		.loc 2 111 0
 498 0008 0F49     		ldr	r1, .L24+8
 499 000a 1048     		ldr	r0, .L24+12
 500              		.loc 2 109 0
 501 000c 84B0     		sub	sp, sp, #16
 502              		.cfi_def_cfa_offset 24
 503              		.loc 2 109 0
 504 000e 0393     		str	r3, [sp, #12]
 505              		.loc 2 111 0
 506 0010 FFF7FEFF 		bl	messagebus_init
 507              	.LVL32:
 508              		.loc 2 112 0
 509 0014 FFF7FEFF 		bl	imu_start
 510              	.LVL33:
 511              		.loc 2 113 0
 512 0018 FFF7FEFF 		bl	calibrate_acc
 513              	.LVL34:
ARM GAS  C:\Users\sandr\AppData\Local\Temp\cc8lXnRE.s 			page 10


 514              		.loc 2 114 0
 515 001c 0023     		movs	r3, #0
 516 001e 0093     		str	r3, [sp]
 517 0020 4022     		movs	r2, #64
 518 0022 0B4B     		ldr	r3, .L24+16
 519 0024 0B48     		ldr	r0, .L24+20
 520 0026 4FF45E71 		mov	r1, #888
 521 002a FFF7FEFF 		bl	chThdCreateStatic
 522              	.LVL35:
 523              		.loc 2 115 0
 524 002e 039A     		ldr	r2, [sp, #12]
 525 0030 2368     		ldr	r3, [r4]
 526 0032 9A42     		cmp	r2, r3
 527 0034 01D1     		bne	.L23
 528 0036 04B0     		add	sp, sp, #16
 529              		.cfi_remember_state
 530              		.cfi_def_cfa_offset 8
 531              		@ sp needed
 532 0038 10BD     		pop	{r4, pc}
 533              	.L23:
 534              		.cfi_restore_state
 535 003a FFF7FEFF 		bl	__stack_chk_fail
 536              	.LVL36:
 537              	.L25:
 538 003e 00BF     		.align	2
 539              	.L24:
 540 0040 00000000 		.word	__stack_chk_guard
 541 0044 00000000 		.word	.LANCHOR9
 542 0048 00000000 		.word	.LANCHOR10
 543 004c 00000000 		.word	.LANCHOR1
 544 0050 00000000 		.word	imu_reader_thd
 545 0054 00000000 		.word	.LANCHOR11
 546              		.cfi_endproc
 547              	.LFE260:
 548              		.size	orientation_start, .-orientation_start
 549              		.section	.text.get_error,"ax",%progbits
 550              		.align	1
 551              		.p2align 4,,15
 552              		.global	get_error
 553              		.syntax unified
 554              		.thumb
 555              		.thumb_func
 556              		.fpu fpv4-sp-d16
 557              		.type	get_error, %function
 558              	get_error:
 559              	.LFB261:
 560              		.loc 2 120 0
 561              		.cfi_startproc
 562              		@ args = 0, pretend = 0, frame = 8
 563              		@ frame_needed = 0, uses_anonymous_args = 0
 564 0000 00B5     		push	{lr}
 565              		.cfi_def_cfa_offset 4
 566              		.cfi_offset 14, -4
 567 0002 084B     		ldr	r3, .L30
 568              		.loc 2 121 0
 569 0004 0849     		ldr	r1, .L30+4
 570              		.loc 2 120 0
ARM GAS  C:\Users\sandr\AppData\Local\Temp\cc8lXnRE.s 			page 11


 571 0006 1A68     		ldr	r2, [r3]
 572              		.loc 2 122 0
 573 0008 B1F90000 		ldrsh	r0, [r1]
 574              		.loc 2 120 0
 575 000c 83B0     		sub	sp, sp, #12
 576              		.cfi_def_cfa_offset 16
 577              		.loc 2 120 0
 578 000e 0192     		str	r2, [sp, #4]
 579              		.loc 2 122 0
 580 0010 019A     		ldr	r2, [sp, #4]
 581 0012 1B68     		ldr	r3, [r3]
 582 0014 9A42     		cmp	r2, r3
 583 0016 02D1     		bne	.L29
 584 0018 03B0     		add	sp, sp, #12
 585              		.cfi_remember_state
 586              		.cfi_def_cfa_offset 4
 587              		@ sp needed
 588 001a 5DF804FB 		ldr	pc, [sp], #4
 589              	.L29:
 590              		.cfi_restore_state
 591 001e FFF7FEFF 		bl	__stack_chk_fail
 592              	.LVL37:
 593              	.L31:
 594 0022 00BF     		.align	2
 595              	.L30:
 596 0024 00000000 		.word	__stack_chk_guard
 597 0028 00000000 		.word	.LANCHOR6
 598              		.cfi_endproc
 599              	.LFE261:
 600              		.size	get_error, .-get_error
 601              		.section	.text.get_norme,"ax",%progbits
 602              		.align	1
 603              		.p2align 4,,15
 604              		.global	get_norme
 605              		.syntax unified
 606              		.thumb
 607              		.thumb_func
 608              		.fpu fpv4-sp-d16
 609              		.type	get_norme, %function
 610              	get_norme:
 611              	.LFB262:
 612              		.loc 2 125 0
 613              		.cfi_startproc
 614              		@ args = 0, pretend = 0, frame = 8
 615              		@ frame_needed = 0, uses_anonymous_args = 0
 616 0000 00B5     		push	{lr}
 617              		.cfi_def_cfa_offset 4
 618              		.cfi_offset 14, -4
 619 0002 084B     		ldr	r3, .L36
 620              		.loc 2 126 0
 621 0004 0849     		ldr	r1, .L36+4
 622              		.loc 2 125 0
 623 0006 1A68     		ldr	r2, [r3]
 624              		.loc 2 127 0
 625 0008 B1F90000 		ldrsh	r0, [r1]
 626              		.loc 2 125 0
 627 000c 83B0     		sub	sp, sp, #12
ARM GAS  C:\Users\sandr\AppData\Local\Temp\cc8lXnRE.s 			page 12


 628              		.cfi_def_cfa_offset 16
 629              		.loc 2 125 0
 630 000e 0192     		str	r2, [sp, #4]
 631              		.loc 2 127 0
 632 0010 019A     		ldr	r2, [sp, #4]
 633 0012 1B68     		ldr	r3, [r3]
 634 0014 9A42     		cmp	r2, r3
 635 0016 02D1     		bne	.L35
 636 0018 03B0     		add	sp, sp, #12
 637              		.cfi_remember_state
 638              		.cfi_def_cfa_offset 4
 639              		@ sp needed
 640 001a 5DF804FB 		ldr	pc, [sp], #4
 641              	.L35:
 642              		.cfi_restore_state
 643 001e FFF7FEFF 		bl	__stack_chk_fail
 644              	.LVL38:
 645              	.L37:
 646 0022 00BF     		.align	2
 647              	.L36:
 648 0024 00000000 		.word	__stack_chk_guard
 649 0028 00000000 		.word	.LANCHOR5
 650              		.cfi_endproc
 651              	.LFE262:
 652              		.size	get_norme, .-get_norme
 653              		.section	.text.get_mode_deplacement,"ax",%progbits
 654              		.align	1
 655              		.p2align 4,,15
 656              		.global	get_mode_deplacement
 657              		.syntax unified
 658              		.thumb
 659              		.thumb_func
 660              		.fpu fpv4-sp-d16
 661              		.type	get_mode_deplacement, %function
 662              	get_mode_deplacement:
 663              	.LFB263:
 664              		.loc 2 130 0
 665              		.cfi_startproc
 666              		@ args = 0, pretend = 0, frame = 8
 667              		@ frame_needed = 0, uses_anonymous_args = 0
 668 0000 00B5     		push	{lr}
 669              		.cfi_def_cfa_offset 4
 670              		.cfi_offset 14, -4
 671 0002 084B     		ldr	r3, .L42
 672              		.loc 2 131 0
 673 0004 0849     		ldr	r1, .L42+4
 674              		.loc 2 130 0
 675 0006 1A68     		ldr	r2, [r3]
 676              		.loc 2 132 0
 677 0008 91F90000 		ldrsb	r0, [r1]
 678              		.loc 2 130 0
 679 000c 83B0     		sub	sp, sp, #12
 680              		.cfi_def_cfa_offset 16
 681              		.loc 2 130 0
 682 000e 0192     		str	r2, [sp, #4]
 683              		.loc 2 132 0
 684 0010 019A     		ldr	r2, [sp, #4]
ARM GAS  C:\Users\sandr\AppData\Local\Temp\cc8lXnRE.s 			page 13


 685 0012 1B68     		ldr	r3, [r3]
 686 0014 9A42     		cmp	r2, r3
 687 0016 02D1     		bne	.L41
 688 0018 03B0     		add	sp, sp, #12
 689              		.cfi_remember_state
 690              		.cfi_def_cfa_offset 4
 691              		@ sp needed
 692 001a 5DF804FB 		ldr	pc, [sp], #4
 693              	.L41:
 694              		.cfi_restore_state
 695 001e FFF7FEFF 		bl	__stack_chk_fail
 696              	.LVL39:
 697              	.L43:
 698 0022 00BF     		.align	2
 699              	.L42:
 700 0024 00000000 		.word	__stack_chk_guard
 701 0028 00000000 		.word	.LANCHOR8
 702              		.cfi_endproc
 703              	.LFE263:
 704              		.size	get_mode_deplacement, .-get_mode_deplacement
 705              		.section	.text.get_cos_gravity,"ax",%progbits
 706              		.align	1
 707              		.p2align 4,,15
 708              		.global	get_cos_gravity
 709              		.syntax unified
 710              		.thumb
 711              		.thumb_func
 712              		.fpu fpv4-sp-d16
 713              		.type	get_cos_gravity, %function
 714              	get_cos_gravity:
 715              	.LFB264:
 716              		.loc 2 134 0
 717              		.cfi_startproc
 718              		@ args = 0, pretend = 0, frame = 8
 719              		@ frame_needed = 0, uses_anonymous_args = 0
 720 0000 00B5     		push	{lr}
 721              		.cfi_def_cfa_offset 4
 722              		.cfi_offset 14, -4
 723              		.loc 2 135 0
 724 0002 0E48     		ldr	r0, .L48
 725 0004 0E49     		ldr	r1, .L48+4
 726              		.loc 2 134 0
 727 0006 0F4B     		ldr	r3, .L48+8
 728              		.loc 2 135 0
 729 0008 B0F90000 		ldrsh	r0, [r0]
 730 000c B1F90010 		ldrsh	r1, [r1]
 731              		.loc 2 134 0
 732 0010 1A68     		ldr	r2, [r3]
 733 0012 83B0     		sub	sp, sp, #12
 734              		.cfi_def_cfa_offset 16
 735              		.loc 2 135 0
 736 0014 00EE100A 		vmov	s0, r0	@ int
 737              		.loc 2 134 0
 738 0018 0192     		str	r2, [sp, #4]
 739              		.loc 2 135 0
 740 001a 07EE901A 		vmov	s15, r1	@ int
 741              		.loc 2 136 0
ARM GAS  C:\Users\sandr\AppData\Local\Temp\cc8lXnRE.s 			page 14


 742 001e 019A     		ldr	r2, [sp, #4]
 743 0020 1B68     		ldr	r3, [r3]
 744              		.loc 2 135 0
 745 0022 B8EEC00A 		vcvt.f32.s32	s0, s0
 746 0026 F8EEE77A 		vcvt.f32.s32	s15, s15
 747              		.loc 2 136 0
 748 002a 9A42     		cmp	r2, r3
 749 002c 80EE270A 		vdiv.f32	s0, s0, s15
 750 0030 02D1     		bne	.L47
 751 0032 03B0     		add	sp, sp, #12
 752              		.cfi_remember_state
 753              		.cfi_def_cfa_offset 4
 754              		@ sp needed
 755 0034 5DF804FB 		ldr	pc, [sp], #4
 756              	.L47:
 757              		.cfi_restore_state
 758 0038 FFF7FEFF 		bl	__stack_chk_fail
 759              	.LVL40:
 760              	.L49:
 761              		.align	2
 762              	.L48:
 763 003c 00000000 		.word	.LANCHOR6
 764 0040 00000000 		.word	.LANCHOR5
 765 0044 00000000 		.word	__stack_chk_guard
 766              		.cfi_endproc
 767              	.LFE264:
 768              		.size	get_cos_gravity, .-get_cos_gravity
 769              		.section	.text.get_sin_gravity,"ax",%progbits
 770              		.align	1
 771              		.p2align 4,,15
 772              		.global	get_sin_gravity
 773              		.syntax unified
 774              		.thumb
 775              		.thumb_func
 776              		.fpu fpv4-sp-d16
 777              		.type	get_sin_gravity, %function
 778              	get_sin_gravity:
 779              	.LFB265:
 780              		.loc 2 138 0
 781              		.cfi_startproc
 782              		@ args = 0, pretend = 0, frame = 8
 783              		@ frame_needed = 0, uses_anonymous_args = 0
 784 0000 00B5     		push	{lr}
 785              		.cfi_def_cfa_offset 4
 786              		.cfi_offset 14, -4
 787              		.loc 2 139 0
 788 0002 0E48     		ldr	r0, .L54
 789 0004 0E49     		ldr	r1, .L54+4
 790              		.loc 2 138 0
 791 0006 0F4B     		ldr	r3, .L54+8
 792              		.loc 2 139 0
 793 0008 B0F90000 		ldrsh	r0, [r0]
 794 000c B1F90010 		ldrsh	r1, [r1]
 795              		.loc 2 138 0
 796 0010 1A68     		ldr	r2, [r3]
 797 0012 83B0     		sub	sp, sp, #12
 798              		.cfi_def_cfa_offset 16
ARM GAS  C:\Users\sandr\AppData\Local\Temp\cc8lXnRE.s 			page 15


 799              		.loc 2 139 0
 800 0014 00EE100A 		vmov	s0, r0	@ int
 801              		.loc 2 138 0
 802 0018 0192     		str	r2, [sp, #4]
 803              		.loc 2 139 0
 804 001a 07EE901A 		vmov	s15, r1	@ int
 805              		.loc 2 140 0
 806 001e 019A     		ldr	r2, [sp, #4]
 807 0020 1B68     		ldr	r3, [r3]
 808              		.loc 2 139 0
 809 0022 B8EEC00A 		vcvt.f32.s32	s0, s0
 810 0026 F8EEE77A 		vcvt.f32.s32	s15, s15
 811              		.loc 2 140 0
 812 002a 9A42     		cmp	r2, r3
 813 002c 80EE270A 		vdiv.f32	s0, s0, s15
 814 0030 02D1     		bne	.L53
 815 0032 03B0     		add	sp, sp, #12
 816              		.cfi_remember_state
 817              		.cfi_def_cfa_offset 4
 818              		@ sp needed
 819 0034 5DF804FB 		ldr	pc, [sp], #4
 820              	.L53:
 821              		.cfi_restore_state
 822 0038 FFF7FEFF 		bl	__stack_chk_fail
 823              	.LVL41:
 824              	.L55:
 825              		.align	2
 826              	.L54:
 827 003c 00000000 		.word	.LANCHOR7
 828 0040 00000000 		.word	.LANCHOR5
 829 0044 00000000 		.word	__stack_chk_guard
 830              		.cfi_endproc
 831              	.LFE265:
 832              		.size	get_sin_gravity, .-get_sin_gravity
 833              		.global	bus_condvar
 834              		.global	bus_lock
 835              		.global	bus
 836              		.section	.bss.acc_filtered_old_value.11573,"aw",%nobits
 837              		.align	1
 838              		.set	.LANCHOR4,. + 0
 839              		.type	acc_filtered_old_value.11573, %object
 840              		.size	acc_filtered_old_value.11573, 2
 841              	acc_filtered_old_value.11573:
 842 0000 0000     		.space	2
 843              		.section	.bss.acc_filtered_older_value.11574,"aw",%nobits
 844              		.align	1
 845              		.set	.LANCHOR3,. + 0
 846              		.type	acc_filtered_older_value.11574, %object
 847              		.size	acc_filtered_older_value.11574, 2
 848              	acc_filtered_older_value.11574:
 849 0000 0000     		.space	2
 850              		.section	.bss.acc_y,"aw",%nobits
 851              		.align	1
 852              		.set	.LANCHOR7,. + 0
 853              		.type	acc_y, %object
 854              		.size	acc_y, 2
 855              	acc_y:
ARM GAS  C:\Users\sandr\AppData\Local\Temp\cc8lXnRE.s 			page 16


 856 0000 0000     		.space	2
 857              		.section	.bss.bus,"aw",%nobits
 858              		.align	2
 859              		.set	.LANCHOR1,. + 0
 860              		.type	bus, %object
 861              		.size	bus, 12
 862              	bus:
 863 0000 00000000 		.space	12
 863      00000000 
 863      00000000 
 864              		.section	.bss.error,"aw",%nobits
 865              		.align	1
 866              		.set	.LANCHOR6,. + 0
 867              		.type	error, %object
 868              		.size	error, 2
 869              	error:
 870 0000 0000     		.space	2
 871              		.section	.bss.imu_reader_thd_wa,"aw",%nobits
 872              		.align	3
 873              		.set	.LANCHOR11,. + 0
 874              		.type	imu_reader_thd_wa, %object
 875              		.size	imu_reader_thd_wa, 888
 876              	imu_reader_thd_wa:
 877 0000 00000000 		.space	888
 877      00000000 
 877      00000000 
 877      00000000 
 877      00000000 
 878              		.section	.bss.mode_deplacement,"aw",%nobits
 879              		.set	.LANCHOR8,. + 0
 880              		.type	mode_deplacement, %object
 881              		.size	mode_deplacement, 1
 882              	mode_deplacement:
 883 0000 00       		.space	1
 884              		.section	.bss.norme,"aw",%nobits
 885              		.align	1
 886              		.set	.LANCHOR5,. + 0
 887              		.type	norme, %object
 888              		.size	norme, 2
 889              	norme:
 890 0000 0000     		.space	2
 891              		.section	.data.bus_condvar,"aw",%progbits
 892              		.align	2
 893              		.set	.LANCHOR9,. + 0
 894              		.type	bus_condvar, %object
 895              		.size	bus_condvar, 8
 896              	bus_condvar:
 897 0000 00000000 		.word	bus_condvar
 898 0004 00000000 		.word	bus_condvar
 899              		.section	.data.bus_lock,"aw",%progbits
 900              		.align	2
 901              		.set	.LANCHOR10,. + 0
 902              		.type	bus_lock, %object
 903              		.size	bus_lock, 20
 904              	bus_lock:
 905 0000 00000000 		.word	bus_lock
 906 0004 00000000 		.word	bus_lock
ARM GAS  C:\Users\sandr\AppData\Local\Temp\cc8lXnRE.s 			page 17


 907 0008 00000000 		.word	0
 908 000c 00000000 		.word	0
 909 0010 00000000 		.word	0
 910              		.section	.rodata.__FUNCTION__.11560,"a",%progbits
 911              		.align	2
 912              		.set	.LANCHOR0,. + 0
 913              		.type	__FUNCTION__.11560, %object
 914              		.size	__FUNCTION__.11560, 15
 915              	__FUNCTION__.11560:
 916 0000 696D755F 		.ascii	"imu_reader_thd\000"
 916      72656164 
 916      65725F74 
 916      686400
 917              		.section	.rodata.__func__.7709,"a",%progbits
 918              		.align	2
 919              		.set	.LANCHOR2,. + 0
 920              		.type	__func__.7709, %object
 921              		.size	__func__.7709, 12
 922              	__func__.7709:
 923 0000 63685379 		.ascii	"chSysUnlock\000"
 923      73556E6C 
 923      6F636B00 
 924              		.section	.rodata.imu_reader_thd.str1.4,"aMS",%progbits,1
 925              		.align	2
 926              	.LC0:
 927 0000 2F696D75 		.ascii	"/imu\000"
 927      00
 928 0005 000000   		.space	3
 929              	.LC1:
 930 0008 6163635F 		.ascii	"acc_x = %d \012\000"
 930      78203D20 
 930      2564200A 
 930      00
 931 0015 000000   		.space	3
 932              	.LC2:
 933 0018 6163635F 		.ascii	"acc_y = %d \012\000"
 933      79203D20 
 933      2564200A 
 933      00
 934              		.text
 935              	.Letext0:
 936              		.file 7 "c:\\users\\sandr\\desktop\\eclipse_e-puck2\\tools\\gcc-arm-none-eabi-7-2017-q4-major-win3
 937              		.file 8 "c:\\users\\sandr\\desktop\\eclipse_e-puck2\\tools\\gcc-arm-none-eabi-7-2017-q4-major-win3
 938              		.file 9 "c:\\users\\sandr\\desktop\\eclipse_e-puck2\\tools\\gcc-arm-none-eabi-7-2017-q4-major-win3
 939              		.file 10 "c:\\users\\sandr\\desktop\\eclipse_e-puck2\\tools\\gcc-arm-none-eabi-7-2017-q4-major-win
 940              		.file 11 "c:\\users\\sandr\\desktop\\eclipse_e-puck2\\tools\\gcc-arm-none-eabi-7-2017-q4-major-win
 941              		.file 12 "c:\\users\\sandr\\desktop\\eclipse_e-puck2\\tools\\gcc-arm-none-eabi-7-2017-q4-major-win
 942              		.file 13 "<built-in>"
 943              		.file 14 "../lib/e-puck2_main-processor/src/msgbus/messagebus.h"
 944              		.file 15 "../lib/e-puck2_main-processor/ChibiOS//os/rt/ports/ARMCMx/compilers/GCC/chtypes.h"
 945              		.file 16 "../lib/e-puck2_main-processor/ChibiOS//os/rt/include/chsystypes.h"
 946              		.file 17 "../lib/e-puck2_main-processor/ChibiOS//os/rt/include/chschd.h"
 947              		.file 18 "../lib/e-puck2_main-processor/ChibiOS//os/ext/CMSIS/include/core_cm4.h"
 948              		.file 19 "../lib/e-puck2_main-processor/ChibiOS//os/ext/CMSIS/ST/system_stm32f4xx.h"
 949              		.file 20 "../lib/e-puck2_main-processor/ChibiOS//os/ext/CMSIS/ST/stm32f407xx.h"
 950              		.file 21 "../lib/e-puck2_main-processor/ChibiOS//os/rt/ports/ARMCMx/chcore.h"
 951              		.file 22 "../lib/e-puck2_main-processor/ChibiOS//os/rt/ports/ARMCMx/chcore_v7m.h"
ARM GAS  C:\Users\sandr\AppData\Local\Temp\cc8lXnRE.s 			page 18


 952              		.file 23 "../lib/e-puck2_main-processor/ChibiOS//os/rt/include/chdebug.h"
 953              		.file 24 "../lib/e-puck2_main-processor/ChibiOS//os/rt/include/chtm.h"
 954              		.file 25 "../lib/e-puck2_main-processor/ChibiOS//os/rt/include/chstats.h"
 955              		.file 26 "../lib/e-puck2_main-processor/ChibiOS//os/rt/include/chsem.h"
 956              		.file 27 "../lib/e-puck2_main-processor/ChibiOS//os/rt/include/chmtx.h"
 957              		.file 28 "../lib/e-puck2_main-processor/ChibiOS//os/rt/include/chcond.h"
 958              		.file 29 "../lib/e-puck2_main-processor/ChibiOS//os/rt/include/chevents.h"
 959              		.file 30 "../lib/e-puck2_main-processor/ChibiOS//os/rt/include/chqueues.h"
 960              		.file 31 "../lib/e-puck2_main-processor/ChibiOS//os/rt/include/chstreams.h"
 961              		.file 32 "../lib/e-puck2_main-processor/ChibiOS//os/hal/ports/STM32/STM32F4xx/stm32_dma.h"
 962              		.file 33 "../lib/e-puck2_main-processor/ChibiOS//os/hal/include/hal_ioblock.h"
 963              		.file 34 "../lib/e-puck2_main-processor/ChibiOS//os/hal/ports/STM32/LLD/GPIOv2/pal_lld.h"
 964              		.file 35 "../lib/e-puck2_main-processor/ChibiOS//os/hal/include/adc.h"
 965              		.file 36 "../lib/e-puck2_main-processor/ChibiOS//os/hal/ports/STM32/STM32F4xx/adc_lld.h"
 966              		.file 37 "../lib/e-puck2_main-processor/ChibiOS//os/hal/include/can.h"
 967              		.file 38 "../lib/e-puck2_main-processor/ChibiOS//os/hal/ports/STM32/LLD/can_lld.h"
 968              		.file 39 "../lib/e-puck2_main-processor/ChibiOS//os/hal/include/dac.h"
 969              		.file 40 "../lib/e-puck2_main-processor/ChibiOS//os/hal/ports/STM32/LLD/DACv1/dac_lld.h"
 970              		.file 41 "../lib/e-puck2_main-processor/ChibiOS//os/hal/include/ext.h"
 971              		.file 42 "../lib/e-puck2_main-processor/ChibiOS//os/hal/ports/STM32/LLD/ext_lld.h"
 972              		.file 43 "../lib/e-puck2_main-processor/ChibiOS//os/hal/include/gpt.h"
 973              		.file 44 "../lib/e-puck2_main-processor/ChibiOS//os/hal/ports/STM32/LLD/TIMv1/gpt_lld.h"
 974              		.file 45 "../lib/e-puck2_main-processor/ChibiOS//os/hal/ports/STM32/LLD/TIMv1/stm32_tim.h"
 975              		.file 46 "../lib/e-puck2_main-processor/ChibiOS//os/hal/include/i2c.h"
 976              		.file 47 "../lib/e-puck2_main-processor/ChibiOS//os/hal/ports/STM32/LLD/I2Cv1/i2c_lld.h"
 977              		.file 48 "../lib/e-puck2_main-processor/ChibiOS//os/hal/include/i2s.h"
 978              		.file 49 "../lib/e-puck2_main-processor/ChibiOS//os/hal/ports/STM32/LLD/SPIv1/i2s_lld.h"
 979              		.file 50 "../lib/e-puck2_main-processor/ChibiOS//os/hal/include/pwm.h"
 980              		.file 51 "../lib/e-puck2_main-processor/ChibiOS//os/hal/ports/STM32/LLD/TIMv1/pwm_lld.h"
 981              		.file 52 "../lib/e-puck2_main-processor/ChibiOS//os/hal/include/serial.h"
 982              		.file 53 "../lib/e-puck2_main-processor/ChibiOS//os/hal/ports/STM32/LLD/USARTv1/serial_lld.h"
 983              		.file 54 "../lib/e-puck2_main-processor/ChibiOS//os/hal/include/sdc.h"
 984              		.file 55 "../lib/e-puck2_main-processor/ChibiOS//os/hal/ports/STM32/LLD/sdc_lld.h"
 985              		.file 56 "../lib/e-puck2_main-processor/ChibiOS//os/hal/include/spi.h"
 986              		.file 57 "../lib/e-puck2_main-processor/ChibiOS//os/hal/ports/STM32/LLD/SPIv1/spi_lld.h"
 987              		.file 58 "../lib/e-puck2_main-processor/ChibiOS//os/hal/include/usb.h"
 988              		.file 59 "../lib/e-puck2_main-processor/ChibiOS//os/hal/ports/STM32/LLD/OTGv1/usb_lld.h"
 989              		.file 60 "../lib/e-puck2_main-processor/ChibiOS//os/hal/ports/STM32/LLD/OTGv1/stm32_otg.h"
 990              		.file 61 "../lib/e-puck2_main-processor/ChibiOS//os/hal/include/serial_usb.h"
 991              		.file 62 "../lib/e-puck2_main-processor/src/sensors/mpu9250.h"
 992              		.file 63 "../lib/e-puck2_main-processor/src/sensors/imu.h"
 993              		.file 64 "c:\\users\\sandr\\desktop\\eclipse_e-puck2\\tools\\gcc-arm-none-eabi-7-2017-q4-major-win
 994              		.file 65 "c:\\users\\sandr\\desktop\\eclipse_e-puck2\\tools\\gcc-arm-none-eabi-7-2017-q4-major-win
 995              		.file 66 "c:\\users\\sandr\\desktop\\eclipse_e-puck2\\tools\\gcc-arm-none-eabi-7-2017-q4-major-win
 996              		.file 67 "../lib/e-puck2_main-processor/src/usbcfg.h"
 997              		.file 68 "c:\\users\\sandr\\desktop\\eclipse_e-puck2\\tools\\gcc-arm-none-eabi-7-2017-q4-major-win
 998              		.file 69 "../lib/e-puck2_main-processor/ChibiOS//os/rt/include/chthreads.h"